---
triple:          'x86_64-apple-darwin'
binary-path:     '/Users/anishgond/Documents/DSA /DSA_Learning/21-Graph/5-cycle-in-graph-undirected-using-BFS'
relocations:
  - { offsetInCU: 0x27146, offset: 0x27146, size: 0x8, addend: 0x0, symName: __ZStL8__ioinit, symObjAddr: 0xD6B98, symBinAddr: 0x10000F000, symSize: 0x0 }
  - { offsetInCU: 0x2825F, offset: 0x2825F, size: 0x8, addend: 0x0, symName: __ZNSt10_Head_baseILm0ERKiLb0EE7_M_headERS2_, symObjAddr: 0x6796, symBinAddr: 0x100007852, symSize: 0x11 }
  - { offsetInCU: 0x28288, offset: 0x28288, size: 0x8, addend: 0x0, symName: __ZNSt11__copy_moveILb0ELb0ESt26random_access_iterator_tagE12__assign_oneIPiS3_EEvPT_PT0_, symObjAddr: 0x6779, symBinAddr: 0x100007835, symSize: 0x1D }
  - { offsetInCU: 0x282EB, offset: 0x282EB, size: 0x8, addend: 0x0, symName: __ZNSt11_Tuple_implILm0EJRKiEE7_M_headERS2_, symObjAddr: 0x675F, symBinAddr: 0x10000781B, symSize: 0x1A }
  - { offsetInCU: 0x28315, offset: 0x28315, size: 0x8, addend: 0x0, symName: __ZNSt20__copy_move_backwardILb0ELb1ESt26random_access_iterator_tagE13__copy_move_bIPiS3_EEPT0_PT_S7_S5_, symObjAddr: 0x66C4, symBinAddr: 0x100007780, symSize: 0x9B }
  - { offsetInCU: 0x28384, offset: 0x28384, size: 0x8, addend: 0x0, symName: __ZNSt11__copy_moveILb0ELb1ESt26random_access_iterator_tagE8__copy_mIPiS3_EEPT0_PT_S7_S5_, symObjAddr: 0x6640, symBinAddr: 0x1000076FC, symSize: 0x84 }
  - { offsetInCU: 0x28409, offset: 0x28409, size: 0x8, addend: 0x0, symName: __ZSt12__get_helperILm0ERKiJEERT0_RSt11_Tuple_implIXT_EJS2_DpT1_EE, symObjAddr: 0x6626, symBinAddr: 0x1000076E2, symSize: 0x1A }
  - { offsetInCU: 0x28454, offset: 0x28454, size: 0x8, addend: 0x0, symName: __ZNK9__gnu_cxx16__aligned_bufferISt4pairIKiiEE7_M_addrEv, symObjAddr: 0x6618, symBinAddr: 0x1000076D4, symSize: 0xE }
  - { offsetInCU: 0x28482, offset: 0x28482, size: 0x8, addend: 0x0, symName: __ZNK9__gnu_cxx16__aligned_bufferISt4pairIKibEE7_M_addrEv, symObjAddr: 0x660A, symBinAddr: 0x1000076C6, symSize: 0xE }
  - { offsetInCU: 0x284A7, offset: 0x284A7, size: 0x8, addend: 0x0, symName: __ZSt23__copy_move_backward_a2ILb0EPPiS1_ET1_T0_S3_S2_, symObjAddr: 0x65DD, symBinAddr: 0x100007699, symSize: 0x2D }
  - { offsetInCU: 0x2850F, offset: 0x2850F, size: 0x8, addend: 0x0, symName: __ZSt14__copy_move_a2ILb0EPPiS1_ET1_T0_S3_S2_, symObjAddr: 0x65B0, symBinAddr: 0x10000766C, symSize: 0x2D }
  - { offsetInCU: 0x28580, offset: 0x28580, size: 0x8, addend: 0x0, symName: __ZNK9__gnu_cxx16__aligned_bufferISt4pairIKiNSt7__cxx114listIiSaIiEEEEE7_M_addrEv, symObjAddr: 0x65A2, symBinAddr: 0x10000765E, symSize: 0xE }
  - { offsetInCU: 0x285F1, offset: 0x285F1, size: 0x8, addend: 0x0, symName: __ZNSt7__cxx1110_List_baseIiSaIiEE10_List_implC1Ev, symObjAddr: 0x6574, symBinAddr: 0x100007630, symSize: 0x2E }
  - { offsetInCU: 0x2862C, offset: 0x2862C, size: 0x8, addend: 0x0, symName: __ZSt3getILm0EJRKiEERNSt13tuple_elementIXT_ESt5tupleIJDpT0_EEE4typeERS6_, symObjAddr: 0x655A, symBinAddr: 0x100007616, symSize: 0x1A }
  - { offsetInCU: 0x2866F, offset: 0x2866F, size: 0x8, addend: 0x0, symName: __ZNK9__gnu_cxx16__aligned_bufferISt4pairIKiiEE6_M_ptrEv, symObjAddr: 0x6540, symBinAddr: 0x1000075FC, symSize: 0x1A }
  - { offsetInCU: 0x2876A, offset: 0x2876A, size: 0x8, addend: 0x0, symName: __ZNSt4pairIKiiEC1IJRS0_EJLm0EEJEJEEERSt5tupleIJDpT_EERS4_IJDpT1_EESt12_Index_tupleIJXspT0_EEESD_IJXspT2_EEE, symObjAddr: 0x6502, symBinAddr: 0x1000075BE, symSize: 0x3E }
  - { offsetInCU: 0x28775, offset: 0x28775, size: 0x8, addend: 0x0, symName: __ZNK9__gnu_cxx16__aligned_bufferISt4pairIKibEE6_M_ptrEv, symObjAddr: 0x64E8, symBinAddr: 0x1000075A4, symSize: 0x1A }
  - { offsetInCU: 0x2879B, offset: 0x2879B, size: 0x8, addend: 0x0, symName: __ZSt11__addressofINSt8__detail10_Hash_nodeISt4pairIKibELb0EEEEPT_RS6_, symObjAddr: 0x64D9, symBinAddr: 0x100007595, symSize: 0xF }
  - { offsetInCU: 0x288A2, offset: 0x288A2, size: 0x8, addend: 0x0, symName: __ZNSt4pairIKibEC1IJRS0_EJLm0EEJEJEEERSt5tupleIJDpT_EERS4_IJDpT1_EESt12_Index_tupleIJXspT0_EEESD_IJXspT2_EEE, symObjAddr: 0x649E, symBinAddr: 0x10000755A, symSize: 0x3B }
  - { offsetInCU: 0x288A9, offset: 0x288A9, size: 0x8, addend: 0x0, symName: __ZSt23__copy_move_backward_a1ILb0EPPiS1_ET1_T0_S3_S2_, symObjAddr: 0x6471, symBinAddr: 0x10000752D, symSize: 0x2D }
  - { offsetInCU: 0x28911, offset: 0x28911, size: 0x8, addend: 0x0, symName: __ZSt12__niter_wrapIPPiET_RKS2_S2_, symObjAddr: 0x645F, symBinAddr: 0x10000751B, symSize: 0x12 }
  - { offsetInCU: 0x2894D, offset: 0x2894D, size: 0x8, addend: 0x0, symName: __ZSt14__copy_move_a1ILb0EPPiS1_ET1_T0_S3_S2_, symObjAddr: 0x6432, symBinAddr: 0x1000074EE, symSize: 0x2D }
  - { offsetInCU: 0x289B5, offset: 0x289B5, size: 0x8, addend: 0x0, symName: __ZSt12__niter_baseIPPiET_S2_, symObjAddr: 0x6424, symBinAddr: 0x1000074E0, symSize: 0xE }
  - { offsetInCU: 0x289E8, offset: 0x289E8, size: 0x8, addend: 0x0, symName: __ZSt11__addressofINSt8__detail10_Hash_nodeISt4pairIKiiELb0EEEEPT_RS6_, symObjAddr: 0x6416, symBinAddr: 0x1000074D2, symSize: 0xE }
  - { offsetInCU: 0x28A1E, offset: 0x28A1E, size: 0x8, addend: 0x0, symName: __ZNK9__gnu_cxx16__aligned_bufferISt4pairIKiNSt7__cxx114listIiSaIiEEEEE6_M_ptrEv, symObjAddr: 0x63FC, symBinAddr: 0x1000074B8, symSize: 0x1A }
  - { offsetInCU: 0x28A48, offset: 0x28A48, size: 0x8, addend: 0x0, symName: __ZNSt15__new_allocatorIPNSt8__detail15_Hash_node_baseEE8allocateEmPKv, symObjAddr: 0x6394, symBinAddr: 0x100007450, symSize: 0x68 }
  - { offsetInCU: 0x28AD0, offset: 0x28AD0, size: 0x8, addend: 0x0, symName: __ZSt11__addressofINSt8__detail10_Hash_nodeISt4pairIKiNSt7__cxx114listIiSaIiEEEELb0EEEEPT_RSA_, symObjAddr: 0x6385, symBinAddr: 0x100007441, symSize: 0xF }
  - { offsetInCU: 0x28BEF, offset: 0x28BEF, size: 0x8, addend: 0x0, symName: __ZNSt4pairIKiNSt7__cxx114listIiSaIiEEEEC1IJRS0_EJLm0EEJEJEEERSt5tupleIJDpT_EERS8_IJDpT1_EESt12_Index_tupleIJXspT0_EEESH_IJXspT2_EEE, symObjAddr: 0x6326, symBinAddr: 0x1000073E2, symSize: 0x5F }
  - { offsetInCU: 0x28C17, offset: 0x28C17, size: 0x8, addend: 0x0, symName: __ZNSt7__cxx114listIiSaIiEEC1Ev, symObjAddr: 0x630A, symBinAddr: 0x1000073C6, symSize: 0x1C }
  - { offsetInCU: 0x28C5E, offset: 0x28C5E, size: 0x8, addend: 0x0, symName: __ZNSt7__cxx1110_List_baseIiSaIiEEC2Ev, symObjAddr: 0x62EE, symBinAddr: 0x1000073AA, symSize: 0x1C }
  - { offsetInCU: 0x28C62, offset: 0x28C62, size: 0x8, addend: 0x0, symName: __ZNKSt8__detail21_Hashtable_ebo_helperILi0ESt8equal_toIiELb1EE7_M_cgetEv, symObjAddr: 0x62E0, symBinAddr: 0x10000739C, symSize: 0xE }
  - { offsetInCU: 0x28C8F, offset: 0x28C8F, size: 0x8, addend: 0x0, symName: __ZSt7forwardIRKSt4pairIKiiEEOT_RNSt16remove_referenceIS5_E4typeE, symObjAddr: 0x62D2, symBinAddr: 0x10000738E, symSize: 0xE }
  - { offsetInCU: 0x28D74, offset: 0x28D74, size: 0x8, addend: 0x0, symName: __ZNSt4pairIKiiEC1IJRS0_EJEEESt21piecewise_construct_tSt5tupleIJDpT_EES5_IJDpT0_EE, symObjAddr: 0x62A8, symBinAddr: 0x100007364, symSize: 0x2A }
  - { offsetInCU: 0x28D78, offset: 0x28D78, size: 0x8, addend: 0x0, symName: __ZNKSt8__detail15_Hashtable_baseIiSt4pairIKiiENS_10_Select1stESt8equal_toIiESt4hashIiENS_18_Mod_range_hashingENS_20_Default_ranged_hashENS_17_Hashtable_traitsILb0ELb0ELb1EEEE5_M_eqEv, symObjAddr: 0x628E, symBinAddr: 0x10000734A, symSize: 0x1A }
  - { offsetInCU: 0x28DA5, offset: 0x28DA5, size: 0x8, addend: 0x0, symName: __ZSt7forwardIRKSt4pairIKibEEOT_RNSt16remove_referenceIS5_E4typeE, symObjAddr: 0x6280, symBinAddr: 0x10000733C, symSize: 0xE }
  - { offsetInCU: 0x28DED, offset: 0x28DED, size: 0x8, addend: 0x0, symName: __ZSt9addressofINSt8__detail10_Hash_nodeISt4pairIKibELb0EEEEPT_RS6_, symObjAddr: 0x6266, symBinAddr: 0x100007322, symSize: 0x1A }
  - { offsetInCU: 0x28EBC, offset: 0x28EBC, size: 0x8, addend: 0x0, symName: __ZNSt4pairIKibEC1IJRS0_EJEEESt21piecewise_construct_tSt5tupleIJDpT_EES5_IJDpT0_EE, symObjAddr: 0x623C, symBinAddr: 0x1000072F8, symSize: 0x2A }
  - { offsetInCU: 0x28EC0, offset: 0x28EC0, size: 0x8, addend: 0x0, symName: __ZNKSt8__detail15_Hashtable_baseIiSt4pairIKibENS_10_Select1stESt8equal_toIiESt4hashIiENS_18_Mod_range_hashingENS_20_Default_ranged_hashENS_17_Hashtable_traitsILb0ELb0ELb1EEEE5_M_eqEv, symObjAddr: 0x6222, symBinAddr: 0x1000072DE, symSize: 0x1A }
  - { offsetInCU: 0x28EE6, offset: 0x28EE6, size: 0x8, addend: 0x0, symName: __ZSt22__copy_move_backward_aILb0EPPiS1_ET1_T0_S3_S2_, symObjAddr: 0x61B8, symBinAddr: 0x100007274, symSize: 0x6A }
  - { offsetInCU: 0x28F4E, offset: 0x28F4E, size: 0x8, addend: 0x0, symName: __ZSt13__copy_move_aILb0EPPiS1_ET1_T0_S3_S2_, symObjAddr: 0x614E, symBinAddr: 0x10000720A, symSize: 0x6A }
  - { offsetInCU: 0x28FB6, offset: 0x28FB6, size: 0x8, addend: 0x0, symName: __ZSt12__miter_baseIPPiET_S2_, symObjAddr: 0x6140, symBinAddr: 0x1000071FC, symSize: 0xE }
  - { offsetInCU: 0x28FFF, offset: 0x28FFF, size: 0x8, addend: 0x0, symName: __ZSt11__addressofIPNSt8__detail15_Hash_node_baseEEPT_RS3_, symObjAddr: 0x6132, symBinAddr: 0x1000071EE, symSize: 0xE }
  - { offsetInCU: 0x29031, offset: 0x29031, size: 0x8, addend: 0x0, symName: __ZSt9addressofINSt8__detail10_Hash_nodeISt4pairIKiiELb0EEEEPT_RS6_, symObjAddr: 0x6118, symBinAddr: 0x1000071D4, symSize: 0x1A }
  - { offsetInCU: 0x2906A, offset: 0x2906A, size: 0x8, addend: 0x0, symName: __ZSt7forwardIRKSt4pairIKiNSt7__cxx114listIiSaIiEEEEEOT_RNSt16remove_referenceIS9_E4typeE, symObjAddr: 0x610A, symBinAddr: 0x1000071C6, symSize: 0xE }
  - { offsetInCU: 0x290B2, offset: 0x290B2, size: 0x8, addend: 0x0, symName: __ZSt12__to_addressIPNSt8__detail15_Hash_node_baseEEPT_S4_, symObjAddr: 0x60FC, symBinAddr: 0x1000071B8, symSize: 0xE }
  - { offsetInCU: 0x29108, offset: 0x29108, size: 0x8, addend: 0x0, symName: __ZSt9addressofINSt8__detail10_Hash_nodeISt4pairIKiNSt7__cxx114listIiSaIiEEEELb0EEEEPT_RSA_, symObjAddr: 0x60E2, symBinAddr: 0x10000719E, symSize: 0x1A }
  - { offsetInCU: 0x291EF, offset: 0x291EF, size: 0x8, addend: 0x0, symName: __ZNSt4pairIKiNSt7__cxx114listIiSaIiEEEEC1IJRS0_EJEEESt21piecewise_construct_tSt5tupleIJDpT_EES9_IJDpT0_EE, symObjAddr: 0x60B8, symBinAddr: 0x100007174, symSize: 0x2A }
  - { offsetInCU: 0x29224, offset: 0x29224, size: 0x8, addend: 0x0, symName: __ZNSt11_Tuple_implILm0EJRKiEEC2EOS2_, symObjAddr: 0x609A, symBinAddr: 0x100007156, symSize: 0x1E }
  - { offsetInCU: 0x29232, offset: 0x29232, size: 0x8, addend: 0x0, symName: __ZNKSt8equal_toIiEclERKiS2_, symObjAddr: 0x6076, symBinAddr: 0x100007132, symSize: 0x24 }
  - { offsetInCU: 0x2927E, offset: 0x2927E, size: 0x8, addend: 0x0, symName: __ZNKSt8__detail15_Hashtable_baseIiSt4pairIKiNSt7__cxx114listIiSaIiEEEENS_10_Select1stESt8equal_toIiESt4hashIiENS_18_Mod_range_hashingENS_20_Default_ranged_hashENS_17_Hashtable_traitsILb0ELb0ELb1EEEE5_M_eqEv, symObjAddr: 0x605C, symBinAddr: 0x100007118, symSize: 0x1A }
  - { offsetInCU: 0x292B3, offset: 0x292B3, size: 0x8, addend: 0x0, symName: __ZNKSt8__detail10_Select1stclIRKSt4pairIKiiEEEONS0_10__1st_typeIT_E4typeEOS8_, symObjAddr: 0x603E, symBinAddr: 0x1000070FA, symSize: 0x1E }
  - { offsetInCU: 0x2930C, offset: 0x2930C, size: 0x8, addend: 0x0, symName: __ZNSt8__detail16_Hashtable_allocISaINS_10_Hash_nodeISt4pairIKiiELb0EEEEE19_M_allocate_bucketsEm, symObjAddr: 0x5F88, symBinAddr: 0x100007044, symSize: 0xB6 }
  - { offsetInCU: 0x29437, offset: 0x29437, size: 0x8, addend: 0x0, symName: __ZNSt15__new_allocatorINSt8__detail10_Hash_nodeISt4pairIKiiELb0EEEE10deallocateEPS5_m, symObjAddr: 0x5F58, symBinAddr: 0x100007014, symSize: 0x30 }
  - { offsetInCU: 0x294E5, offset: 0x294E5, size: 0x8, addend: 0x0, symName: __ZNSt15__new_allocatorINSt8__detail10_Hash_nodeISt4pairIKiiELb0EEEE8allocateEmPKv, symObjAddr: 0x5EF0, symBinAddr: 0x100006FAC, symSize: 0x68 }
  - { offsetInCU: 0x29576, offset: 0x29576, size: 0x8, addend: 0x0, symName: __ZN9__gnu_cxx16__aligned_bufferISt4pairIKiiEE7_M_addrEv, symObjAddr: 0x5EE2, symBinAddr: 0x100006F9E, symSize: 0xE }
  - { offsetInCU: 0x2959F, offset: 0x2959F, size: 0x8, addend: 0x0, symName: __ZNKSt8__detail15_Hashtable_baseIiSt4pairIKiiENS_10_Select1stESt8equal_toIiESt4hashIiENS_18_Mod_range_hashingENS_20_Default_ranged_hashENS_17_Hashtable_traitsILb0ELb0ELb1EEEE13_M_key_equalsERS2_RKNS_16_Hash_node_valueIS3_Lb0EEE, symObjAddr: 0x5E76, symBinAddr: 0x100006F32, symSize: 0x6C }
  - { offsetInCU: 0x29632, offset: 0x29632, size: 0x8, addend: 0x0, symName: __ZNSt8__detail15_Hashtable_baseIiSt4pairIKiiENS_10_Select1stESt8equal_toIiESt4hashIiENS_18_Mod_range_hashingENS_20_Default_ranged_hashENS_17_Hashtable_traitsILb0ELb0ELb1EEEE9_S_equalsEmRKNS_21_Hash_node_code_cacheILb0EEE, symObjAddr: 0x5E62, symBinAddr: 0x100006F1E, symSize: 0x14 }
  - { offsetInCU: 0x29661, offset: 0x29661, size: 0x8, addend: 0x0, symName: __ZNKSt8__detail10_Select1stclIRKSt4pairIKibEEEONS0_10__1st_typeIT_E4typeEOS8_, symObjAddr: 0x5E44, symBinAddr: 0x100006F00, symSize: 0x1E }
  - { offsetInCU: 0x296BA, offset: 0x296BA, size: 0x8, addend: 0x0, symName: __ZNSt8__detail16_Hashtable_allocISaINS_10_Hash_nodeISt4pairIKibELb0EEEEE19_M_allocate_bucketsEm, symObjAddr: 0x5D8E, symBinAddr: 0x100006E4A, symSize: 0xB6 }
  - { offsetInCU: 0x297E1, offset: 0x297E1, size: 0x8, addend: 0x0, symName: __ZNSt19__ptr_traits_ptr_toIPNSt8__detail10_Hash_nodeISt4pairIKibELb0EEES5_Lb0EE10pointer_toERS5_, symObjAddr: 0x5D74, symBinAddr: 0x100006E30, symSize: 0x1A }
  - { offsetInCU: 0x2983A, offset: 0x2983A, size: 0x8, addend: 0x0, symName: __ZNSt15__new_allocatorINSt8__detail10_Hash_nodeISt4pairIKibELb0EEEE10deallocateEPS5_m, symObjAddr: 0x5D44, symBinAddr: 0x100006E00, symSize: 0x30 }
  - { offsetInCU: 0x298DA, offset: 0x298DA, size: 0x8, addend: 0x0, symName: __ZNSt15__new_allocatorINSt8__detail10_Hash_nodeISt4pairIKibELb0EEEE8allocateEmPKv, symObjAddr: 0x5CDC, symBinAddr: 0x100006D98, symSize: 0x68 }
  - { offsetInCU: 0x29966, offset: 0x29966, size: 0x8, addend: 0x0, symName: __ZNSt8__detail21_Hashtable_ebo_helperILi0ESaINS_10_Hash_nodeISt4pairIKibELb0EEEELb1EE6_M_getEv, symObjAddr: 0x5CCE, symBinAddr: 0x100006D8A, symSize: 0xE }
  - { offsetInCU: 0x29995, offset: 0x29995, size: 0x8, addend: 0x0, symName: __ZN9__gnu_cxx16__aligned_bufferISt4pairIKibEE7_M_addrEv, symObjAddr: 0x5CC0, symBinAddr: 0x100006D7C, symSize: 0xE }
  - { offsetInCU: 0x299BE, offset: 0x299BE, size: 0x8, addend: 0x0, symName: __ZNKSt8__detail15_Hashtable_baseIiSt4pairIKibENS_10_Select1stESt8equal_toIiESt4hashIiENS_18_Mod_range_hashingENS_20_Default_ranged_hashENS_17_Hashtable_traitsILb0ELb0ELb1EEEE13_M_key_equalsERS2_RKNS_16_Hash_node_valueIS3_Lb0EEE, symObjAddr: 0x5C54, symBinAddr: 0x100006D10, symSize: 0x6C }
  - { offsetInCU: 0x29A51, offset: 0x29A51, size: 0x8, addend: 0x0, symName: __ZNSt8__detail15_Hashtable_baseIiSt4pairIKibENS_10_Select1stESt8equal_toIiESt4hashIiENS_18_Mod_range_hashingENS_20_Default_ranged_hashENS_17_Hashtable_traitsILb0ELb0ELb1EEEE9_S_equalsEmRKNS_21_Hash_node_code_cacheILb0EEE, symObjAddr: 0x5C41, symBinAddr: 0x100006CFD, symSize: 0x13 }
  - { offsetInCU: 0x29A80, offset: 0x29A80, size: 0x8, addend: 0x0, symName: __ZNSt15__new_allocatorIiE8allocateEmPKv, symObjAddr: 0x5BDA, symBinAddr: 0x100006C96, symSize: 0x67 }
  - { offsetInCU: 0x29B08, offset: 0x29B08, size: 0x8, addend: 0x0, symName: __ZSt13copy_backwardIPPiS1_ET0_T_S3_S2_, symObjAddr: 0x5B8E, symBinAddr: 0x100006C4A, symSize: 0x4C }
  - { offsetInCU: 0x29B66, offset: 0x29B66, size: 0x8, addend: 0x0, symName: __ZSt4copyIPPiS1_ET0_T_S3_S2_, symObjAddr: 0x5B43, symBinAddr: 0x100006BFF, symSize: 0x4B }
  - { offsetInCU: 0x29BF4, offset: 0x29BF4, size: 0x8, addend: 0x0, symName: __ZNSt15__new_allocatorIiE10deallocateEPim, symObjAddr: 0x5B12, symBinAddr: 0x100006BCE, symSize: 0x31 }
  - { offsetInCU: 0x29C3E, offset: 0x29C3E, size: 0x8, addend: 0x0, symName: __ZNSt15__new_allocatorIPiE8allocateEmPKv, symObjAddr: 0x5AAA, symBinAddr: 0x100006B66, symSize: 0x68 }
  - { offsetInCU: 0x29CCA, offset: 0x29CCA, size: 0x8, addend: 0x0, symName: __ZNSt15__new_allocatorIPNSt8__detail15_Hash_node_baseEE10deallocateEPS2_m, symObjAddr: 0x5A78, symBinAddr: 0x100006B34, symSize: 0x32 }
  - { offsetInCU: 0x29D70, offset: 0x29D70, size: 0x8, addend: 0x0, symName: __ZNSt15__new_allocatorIPNSt8__detail15_Hash_node_baseEED2Ev, symObjAddr: 0x5A6C, symBinAddr: 0x100006B28, symSize: 0xC }
  - { offsetInCU: 0x29D70, offset: 0x29D70, size: 0x8, addend: 0x0, symName: __ZSt9addressofIPNSt8__detail15_Hash_node_baseEEPT_RS3_, symObjAddr: 0x5A52, symBinAddr: 0x100006B0E, symSize: 0x1A }
  - { offsetInCU: 0x29DA2, offset: 0x29DA2, size: 0x8, addend: 0x0, symName: __ZNSt19__ptr_traits_ptr_toIPNSt8__detail10_Hash_nodeISt4pairIKiiELb0EEES5_Lb0EE10pointer_toERS5_, symObjAddr: 0x5A38, symBinAddr: 0x100006AF4, symSize: 0x1A }
  - { offsetInCU: 0x29DFB, offset: 0x29DFB, size: 0x8, addend: 0x0, symName: __ZNSt8__detail21_Hashtable_ebo_helperILi0ESaINS_10_Hash_nodeISt4pairIKiiELb0EEEELb1EE6_M_getEv, symObjAddr: 0x5A2A, symBinAddr: 0x100006AE6, symSize: 0xE }
  - { offsetInCU: 0x29E2A, offset: 0x29E2A, size: 0x8, addend: 0x0, symName: __ZNK9__gnu_cxx16__aligned_membufIiE7_M_addrEv, symObjAddr: 0x5A1C, symBinAddr: 0x100006AD8, symSize: 0xE }
  - { offsetInCU: 0x29E53, offset: 0x29E53, size: 0x8, addend: 0x0, symName: __ZNSt15__new_allocatorISt10_List_nodeIiEE8allocateEmPKv, symObjAddr: 0x59AC, symBinAddr: 0x100006A68, symSize: 0x70 }
  - { offsetInCU: 0x29EDF, offset: 0x29EDF, size: 0x8, addend: 0x0, symName: __ZNKSt8__detail10_Select1stclIRKSt4pairIKiNSt7__cxx114listIiSaIiEEEEEEONS0_10__1st_typeIT_E4typeEOSC_, symObjAddr: 0x598E, symBinAddr: 0x100006A4A, symSize: 0x1E }
  - { offsetInCU: 0x29F38, offset: 0x29F38, size: 0x8, addend: 0x0, symName: __ZNSt8__detail16_Hashtable_allocISaINS_10_Hash_nodeISt4pairIKiNSt7__cxx114listIiSaIiEEEELb0EEEEE19_M_allocate_bucketsEm, symObjAddr: 0x58D8, symBinAddr: 0x100006994, symSize: 0xB6 }
  - { offsetInCU: 0x2A05F, offset: 0x2A05F, size: 0x8, addend: 0x0, symName: __ZNSt19__ptr_traits_ptr_toIPNSt8__detail10_Hash_nodeISt4pairIKiNSt7__cxx114listIiSaIiEEEELb0EEES9_Lb0EE10pointer_toERS9_, symObjAddr: 0x58BE, symBinAddr: 0x10000697A, symSize: 0x1A }
  - { offsetInCU: 0x2A0B8, offset: 0x2A0B8, size: 0x8, addend: 0x0, symName: __ZNSt15__new_allocatorINSt8__detail10_Hash_nodeISt4pairIKiNSt7__cxx114listIiSaIiEEEELb0EEEE10deallocateEPS9_m, symObjAddr: 0x5884, symBinAddr: 0x100006940, symSize: 0x3A }
  - { offsetInCU: 0x2A18D, offset: 0x2A18D, size: 0x8, addend: 0x0, symName: __ZNSt5tupleIJRKiEEC1EOS2_, symObjAddr: 0x585E, symBinAddr: 0x10000691A, symSize: 0x26 }
  - { offsetInCU: 0x2A1A6, offset: 0x2A1A6, size: 0x8, addend: 0x0, symName: __ZNSt15__new_allocatorINSt8__detail10_Hash_nodeISt4pairIKiNSt7__cxx114listIiSaIiEEEELb0EEEE8allocateEmPKv, symObjAddr: 0x57EC, symBinAddr: 0x1000068A8, symSize: 0x72 }
  - { offsetInCU: 0x2A232, offset: 0x2A232, size: 0x8, addend: 0x0, symName: __ZNSt8__detail21_Hashtable_ebo_helperILi0ESaINS_10_Hash_nodeISt4pairIKiNSt7__cxx114listIiSaIiEEEELb0EEEELb1EE6_M_getEv, symObjAddr: 0x57DE, symBinAddr: 0x10000689A, symSize: 0xE }
  - { offsetInCU: 0x2A25C, offset: 0x2A25C, size: 0x8, addend: 0x0, symName: __ZNKSt8__detail15_Hashtable_baseIiSt4pairIKiNSt7__cxx114listIiSaIiEEEENS_10_Select1stESt8equal_toIiESt4hashIiENS_18_Mod_range_hashingENS_20_Default_ranged_hashENS_17_Hashtable_traitsILb0ELb0ELb1EEEE13_M_key_equalsERS2_RKNS_16_Hash_node_valueIS7_Lb0EEE, symObjAddr: 0x5772, symBinAddr: 0x10000682E, symSize: 0x6C }
  - { offsetInCU: 0x2A2EF, offset: 0x2A2EF, size: 0x8, addend: 0x0, symName: __ZNSt8__detail15_Hashtable_baseIiSt4pairIKiNSt7__cxx114listIiSaIiEEEENS_10_Select1stESt8equal_toIiESt4hashIiENS_18_Mod_range_hashingENS_20_Default_ranged_hashENS_17_Hashtable_traitsILb0ELb0ELb1EEEE9_S_equalsEmRKNS_21_Hash_node_code_cacheILb0EEE, symObjAddr: 0x575E, symBinAddr: 0x10000681A, symSize: 0x14 }
  - { offsetInCU: 0x2A3DD, offset: 0x2A3DD, size: 0x8, addend: 0x0, symName: __ZNSt8__detail19_Node_iterator_baseISt4pairIKiiELb0EEC2EPNS_10_Hash_nodeIS3_Lb0EEE, symObjAddr: 0x5744, symBinAddr: 0x100006800, symSize: 0x1A }
  - { offsetInCU: 0x2A3BD, offset: 0x2A3BD, size: 0x8, addend: 0x0, symName: __ZNKSt8__detail15_Hash_code_baseIiSt4pairIKiiENS_10_Select1stESt4hashIiENS_18_Mod_range_hashingENS_20_Default_ranged_hashELb0EE15_M_bucket_indexERKNS_16_Hash_node_valueIS3_Lb0EEEm, symObjAddr: 0x56D6, symBinAddr: 0x100006792, symSize: 0x6E }
  - { offsetInCU: 0x2A452, offset: 0x2A452, size: 0x8, addend: 0x0, symName: __ZNSt10_HashtableIiSt4pairIKiiESaIS2_ENSt8__detail10_Select1stESt8equal_toIiESt4hashIiENS4_18_Mod_range_hashingENS4_20_Default_ranged_hashENS4_20_Prime_rehash_policyENS4_17_Hashtable_traitsILb0ELb0ELb1EEEE19_M_allocate_bucketsEm, symObjAddr: 0x568A, symBinAddr: 0x100006746, symSize: 0x4C }
  - { offsetInCU: 0x2A513, offset: 0x2A513, size: 0x8, addend: 0x0, symName: __ZSt12__to_addressINSt8__detail10_Hash_nodeISt4pairIKiiELb0EEEEPT_S7_, symObjAddr: 0x567C, symBinAddr: 0x100006738, symSize: 0xE }
  - { offsetInCU: 0x2A56D, offset: 0x2A56D, size: 0x8, addend: 0x0, symName: __ZN9__gnu_cxx16__aligned_bufferISt4pairIKiiEE6_M_ptrEv, symObjAddr: 0x5662, symBinAddr: 0x10000671E, symSize: 0x1A }
  - { offsetInCU: 0x2A597, offset: 0x2A597, size: 0x8, addend: 0x0, symName: __ZNKSt10_HashtableIiSt4pairIKiiESaIS2_ENSt8__detail10_Select1stESt8equal_toIiESt4hashIiENS4_18_Mod_range_hashingENS4_20_Default_ranged_hashENS4_20_Prime_rehash_policyENS4_17_Hashtable_traitsILb0ELb0ELb1EEEE15_M_bucket_indexERKNS4_16_Hash_node_valueIS2_Lb0EEE, symObjAddr: 0x5634, symBinAddr: 0x1000066F0, symSize: 0x2E }
  - { offsetInCU: 0x2A5D2, offset: 0x2A5D2, size: 0x8, addend: 0x0, symName: __ZNKSt8__detail15_Hashtable_baseIiSt4pairIKiiENS_10_Select1stESt8equal_toIiESt4hashIiENS_18_Mod_range_hashingENS_20_Default_ranged_hashENS_17_Hashtable_traitsILb0ELb0ELb1EEEE9_M_equalsERS2_mRKNS_16_Hash_node_valueIS3_Lb0EEE, symObjAddr: 0x55DC, symBinAddr: 0x100006698, symSize: 0x58 }
  - { offsetInCU: 0x2A6A6, offset: 0x2A6A6, size: 0x8, addend: 0x0, symName: __ZNSt8__detail19_Node_iterator_baseISt4pairIKibELb0EEC2EPNS_10_Hash_nodeIS3_Lb0EEE, symObjAddr: 0x55C2, symBinAddr: 0x10000667E, symSize: 0x1A }
  - { offsetInCU: 0x2A686, offset: 0x2A686, size: 0x8, addend: 0x0, symName: __ZNKSt8__detail15_Hash_code_baseIiSt4pairIKibENS_10_Select1stESt4hashIiENS_18_Mod_range_hashingENS_20_Default_ranged_hashELb0EE15_M_bucket_indexERKNS_16_Hash_node_valueIS3_Lb0EEEm, symObjAddr: 0x5554, symBinAddr: 0x100006610, symSize: 0x6E }
  - { offsetInCU: 0x2A71B, offset: 0x2A71B, size: 0x8, addend: 0x0, symName: __ZNSt10_HashtableIiSt4pairIKibESaIS2_ENSt8__detail10_Select1stESt8equal_toIiESt4hashIiENS4_18_Mod_range_hashingENS4_20_Default_ranged_hashENS4_20_Prime_rehash_policyENS4_17_Hashtable_traitsILb0ELb0ELb1EEEE19_M_allocate_bucketsEm, symObjAddr: 0x5508, symBinAddr: 0x1000065C4, symSize: 0x4C }
  - { offsetInCU: 0x2A756, offset: 0x2A756, size: 0x8, addend: 0x0, symName: __ZNSt8__detail16_Hashtable_allocISaINS_10_Hash_nodeISt4pairIKibELb0EEEEE22_M_deallocate_node_ptrEPS5_, symObjAddr: 0x54AC, symBinAddr: 0x100006568, symSize: 0x5C }
  - { offsetInCU: 0x2A88B, offset: 0x2A88B, size: 0x8, addend: 0x0, symName: __ZSt12__to_addressINSt8__detail10_Hash_nodeISt4pairIKibELb0EEEEPT_S7_, symObjAddr: 0x549E, symBinAddr: 0x10000655A, symSize: 0xE }
  - { offsetInCU: 0x2A8E5, offset: 0x2A8E5, size: 0x8, addend: 0x0, symName: __ZNSt8__detail16_Hashtable_allocISaINS_10_Hash_nodeISt4pairIKibELb0EEEEE17_M_node_allocatorEv, symObjAddr: 0x5484, symBinAddr: 0x100006540, symSize: 0x1A }
  - { offsetInCU: 0x2A90F, offset: 0x2A90F, size: 0x8, addend: 0x0, symName: __ZN9__gnu_cxx16__aligned_bufferISt4pairIKibEE6_M_ptrEv, symObjAddr: 0x546A, symBinAddr: 0x100006526, symSize: 0x1A }
  - { offsetInCU: 0x2A939, offset: 0x2A939, size: 0x8, addend: 0x0, symName: __ZNKSt10_HashtableIiSt4pairIKibESaIS2_ENSt8__detail10_Select1stESt8equal_toIiESt4hashIiENS4_18_Mod_range_hashingENS4_20_Default_ranged_hashENS4_20_Prime_rehash_policyENS4_17_Hashtable_traitsILb0ELb0ELb1EEEE15_M_bucket_indexERKNS4_16_Hash_node_valueIS2_Lb0EEE, symObjAddr: 0x543C, symBinAddr: 0x1000064F8, symSize: 0x2E }
  - { offsetInCU: 0x2A974, offset: 0x2A974, size: 0x8, addend: 0x0, symName: __ZNKSt8__detail15_Hashtable_baseIiSt4pairIKibENS_10_Select1stESt8equal_toIiESt4hashIiENS_18_Mod_range_hashingENS_20_Default_ranged_hashENS_17_Hashtable_traitsILb0ELb0ELb1EEEE9_M_equalsERS2_mRKNS_16_Hash_node_valueIS3_Lb0EEE, symObjAddr: 0x53E4, symBinAddr: 0x1000064A0, symSize: 0x58 }
  - { offsetInCU: 0x2A9F5, offset: 0x2A9F5, size: 0x8, addend: 0x0, symName: __ZNSt5dequeIiSaIiEE17_M_reallocate_mapEmb, symObjAddr: 0x51C4, symBinAddr: 0x100006280, symSize: 0x220 }
  - { offsetInCU: 0x2AAA9, offset: 0x2AAA9, size: 0x8, addend: 0x0, symName: __ZNSt5dequeIiSaIiEE11_S_max_sizeERKS0_, symObjAddr: 0x5169, symBinAddr: 0x100006225, symSize: 0x5B }
  - { offsetInCU: 0x2AB68, offset: 0x2AB68, size: 0x8, addend: 0x0, symName: __ZStmiRKSt15_Deque_iteratorIiRiPiES4_, symObjAddr: 0x50DF, symBinAddr: 0x10000619B, symSize: 0x8A }
  - { offsetInCU: 0x2ABA7, offset: 0x2ABA7, size: 0x8, addend: 0x0, symName: __ZNSt15__new_allocatorIPiE10deallocateEPS0_m, symObjAddr: 0x50AE, symBinAddr: 0x10000616A, symSize: 0x31 }
  - { offsetInCU: 0x2AC30, offset: 0x2AC30, size: 0x8, addend: 0x0, symName: __ZNSt15__new_allocatorIPiED2Ev, symObjAddr: 0x50A2, symBinAddr: 0x10000615E, symSize: 0xC }
  - { offsetInCU: 0x2AC5F, offset: 0x2AC5F, size: 0x8, addend: 0x0, symName: __ZNKSt11_Deque_baseIiSaIiEE19_M_get_Tp_allocatorEv, symObjAddr: 0x5094, symBinAddr: 0x100006150, symSize: 0xE }
  - { offsetInCU: 0x2ACB8, offset: 0x2ACB8, size: 0x8, addend: 0x0, symName: __ZNSt15_Deque_iteratorIiRiPiE14_S_buffer_sizeEv, symObjAddr: 0x5084, symBinAddr: 0x100006140, symSize: 0x10 }
  - { offsetInCU: 0x2AD2F, offset: 0x2AD2F, size: 0x8, addend: 0x0, symName: __ZNSt15_Deque_iteratorIiRiPiEC1Ev, symObjAddr: 0x504A, symBinAddr: 0x100006106, symSize: 0x3A }
  - { offsetInCU: 0x2ADBF, offset: 0x2ADBF, size: 0x8, addend: 0x0, symName: __ZNSt19__ptr_traits_ptr_toIPPNSt8__detail15_Hash_node_baseES2_Lb0EE10pointer_toERS2_, symObjAddr: 0x502F, symBinAddr: 0x1000060EB, symSize: 0x1B }
  - { offsetInCU: 0x2ADEC, offset: 0x2ADEC, size: 0x8, addend: 0x0, symName: __ZNSt8__detail16_Hashtable_allocISaINS_10_Hash_nodeISt4pairIKiiELb0EEEEE22_M_deallocate_node_ptrEPS5_, symObjAddr: 0x4FD4, symBinAddr: 0x100006090, symSize: 0x5B }
  - { offsetInCU: 0x2AE9B, offset: 0x2AE9B, size: 0x8, addend: 0x0, symName: __ZNSt8__detail16_Hashtable_allocISaINS_10_Hash_nodeISt4pairIKiiELb0EEEEE17_M_node_allocatorEv, symObjAddr: 0x4FBA, symBinAddr: 0x100006076, symSize: 0x1A }
  - { offsetInCU: 0x2AEC5, offset: 0x2AEC5, size: 0x8, addend: 0x0, symName: __ZNSt15__new_allocatorISt10_List_nodeIiEE10deallocateEPS1_m, symObjAddr: 0x4F80, symBinAddr: 0x10000603C, symSize: 0x3A }
  - { offsetInCU: 0x2AF0F, offset: 0x2AF0F, size: 0x8, addend: 0x0, symName: __ZNSt14_List_iteratorIiEmmEv, symObjAddr: 0x4F60, symBinAddr: 0x10000601C, symSize: 0x20 }
  - { offsetInCU: 0x2AF39, offset: 0x2AF39, size: 0x8, addend: 0x0, symName: __ZNK9__gnu_cxx16__aligned_membufIiE6_M_ptrEv, symObjAddr: 0x4F46, symBinAddr: 0x100006002, symSize: 0x1A }
  - { offsetInCU: 0x2AF83, offset: 0x2AF83, size: 0x8, addend: 0x0, symName: __ZN9__gnu_cxx16__aligned_bufferISt4pairIKiNSt7__cxx114listIiSaIiEEEEE7_M_addrEv, symObjAddr: 0x4F38, symBinAddr: 0x100005FF4, symSize: 0xE }
  - { offsetInCU: 0x2AFEA, offset: 0x2AFEA, size: 0x8, addend: 0x0, symName: __ZSt11__addressofISaISt10_List_nodeIiEEEPT_RS3_, symObjAddr: 0x4F2A, symBinAddr: 0x100005FE6, symSize: 0xE }
  - { offsetInCU: 0x2B044, offset: 0x2B044, size: 0x8, addend: 0x0, symName: __ZNKSt8__detail15_Hash_code_baseIiSt4pairIKiNSt7__cxx114listIiSaIiEEEENS_10_Select1stESt4hashIiENS_18_Mod_range_hashingENS_20_Default_ranged_hashELb0EE15_M_bucket_indexERKNS_16_Hash_node_valueIS7_Lb0EEEm, symObjAddr: 0x4EBC, symBinAddr: 0x100005F78, symSize: 0x6E }
  - { offsetInCU: 0x2B0D9, offset: 0x2B0D9, size: 0x8, addend: 0x0, symName: __ZNSt10_HashtableIiSt4pairIKiNSt7__cxx114listIiSaIiEEEESaIS6_ENSt8__detail10_Select1stESt8equal_toIiESt4hashIiENS8_18_Mod_range_hashingENS8_20_Default_ranged_hashENS8_20_Prime_rehash_policyENS8_17_Hashtable_traitsILb0ELb0ELb1EEEE19_M_allocate_bucketsEm, symObjAddr: 0x4E70, symBinAddr: 0x100005F2C, symSize: 0x4C }
  - { offsetInCU: 0x2B110, offset: 0x2B110, size: 0x8, addend: 0x0, symName: __ZSt11__addressofINSt8__detail20_Prime_rehash_policyEEPT_RS2_, symObjAddr: 0x4E61, symBinAddr: 0x100005F1D, symSize: 0xF }
  - { offsetInCU: 0x2B146, offset: 0x2B146, size: 0x8, addend: 0x0, symName: __ZNSt8__detail16_Hashtable_allocISaINS_10_Hash_nodeISt4pairIKiNSt7__cxx114listIiSaIiEEEELb0EEEEE22_M_deallocate_node_ptrEPS9_, symObjAddr: 0x4E06, symBinAddr: 0x100005EC2, symSize: 0x5B }
  - { offsetInCU: 0x2B27B, offset: 0x2B27B, size: 0x8, addend: 0x0, symName: __ZSt12__to_addressINSt8__detail10_Hash_nodeISt4pairIKiNSt7__cxx114listIiSaIiEEEELb0EEEEPT_SB_, symObjAddr: 0x4DF8, symBinAddr: 0x100005EB4, symSize: 0xE }
  - { offsetInCU: 0x2B2D5, offset: 0x2B2D5, size: 0x8, addend: 0x0, symName: __ZNSt8__detail16_Hashtable_allocISaINS_10_Hash_nodeISt4pairIKiNSt7__cxx114listIiSaIiEEEELb0EEEEE17_M_node_allocatorEv, symObjAddr: 0x4DDE, symBinAddr: 0x100005E9A, symSize: 0x1A }
  - { offsetInCU: 0x2B347, offset: 0x2B347, size: 0x8, addend: 0x0, symName: __ZNSt10_Head_baseILm0ERKiLb0EEC2ES1_, symObjAddr: 0x4DC4, symBinAddr: 0x100005E80, symSize: 0x1A }
  - { offsetInCU: 0x2B355, offset: 0x2B355, size: 0x8, addend: 0x0, symName: __ZNKSt10_HashtableIiSt4pairIKiNSt7__cxx114listIiSaIiEEEESaIS6_ENSt8__detail10_Select1stESt8equal_toIiESt4hashIiENS8_18_Mod_range_hashingENS8_20_Default_ranged_hashENS8_20_Prime_rehash_policyENS8_17_Hashtable_traitsILb0ELb0ELb1EEEE15_M_bucket_indexERKNS8_16_Hash_node_valueIS6_Lb0EEE, symObjAddr: 0x4D96, symBinAddr: 0x100005E52, symSize: 0x2E }
  - { offsetInCU: 0x2B390, offset: 0x2B390, size: 0x8, addend: 0x0, symName: __ZNKSt8__detail15_Hashtable_baseIiSt4pairIKiNSt7__cxx114listIiSaIiEEEENS_10_Select1stESt8equal_toIiESt4hashIiENS_18_Mod_range_hashingENS_20_Default_ranged_hashENS_17_Hashtable_traitsILb0ELb0ELb1EEEE9_M_equalsERS2_mRKNS_16_Hash_node_valueIS7_Lb0EEE, symObjAddr: 0x4D3E, symBinAddr: 0x100005DFA, symSize: 0x58 }
  - { offsetInCU: 0x2B3ED, offset: 0x2B3ED, size: 0x8, addend: 0x0, symName: __ZNKSt8__detail21_Hashtable_ebo_helperILi1ESt4hashIiELb1EE7_M_cgetEv, symObjAddr: 0x4D30, symBinAddr: 0x100005DEC, symSize: 0xE }
  - { offsetInCU: 0x2B417, offset: 0x2B417, size: 0x8, addend: 0x0, symName: __ZNSt8__detail16_Hashtable_allocISaINS_10_Hash_nodeISt4pairIKibELb0EEEEE21_M_deallocate_bucketsEPPNS_15_Hash_node_baseEm, symObjAddr: 0x4CBA, symBinAddr: 0x100005D76, symSize: 0x76 }
  - { offsetInCU: 0x2B529, offset: 0x2B529, size: 0x8, addend: 0x0, symName: __ZNKSt10_HashtableIiSt4pairIKibESaIS2_ENSt8__detail10_Select1stESt8equal_toIiESt4hashIiENS4_18_Mod_range_hashingENS4_20_Default_ranged_hashENS4_20_Prime_rehash_policyENS4_17_Hashtable_traitsILb0ELb0ELb1EEEE21_M_uses_single_bucketEPPNS4_15_Hash_node_baseE, symObjAddr: 0x4C94, symBinAddr: 0x100005D50, symSize: 0x26 }
  - { offsetInCU: 0x2B564, offset: 0x2B564, size: 0x8, addend: 0x0, symName: __ZNKSt8__detail10_Hash_nodeISt4pairIKibELb0EE7_M_nextEv, symObjAddr: 0x4C82, symBinAddr: 0x100005D3E, symSize: 0x12 }
  - { offsetInCU: 0x2B58E, offset: 0x2B58E, size: 0x8, addend: 0x0, symName: __ZNSt8__detail16_Hashtable_allocISaINS_10_Hash_nodeISt4pairIKiNSt7__cxx114listIiSaIiEEEELb0EEEEE21_M_deallocate_bucketsEPPNS_15_Hash_node_baseEm, symObjAddr: 0x4C0C, symBinAddr: 0x100005CC8, symSize: 0x76 }
  - { offsetInCU: 0x2B6A0, offset: 0x2B6A0, size: 0x8, addend: 0x0, symName: __ZNKSt10_HashtableIiSt4pairIKiNSt7__cxx114listIiSaIiEEEESaIS6_ENSt8__detail10_Select1stESt8equal_toIiESt4hashIiENS8_18_Mod_range_hashingENS8_20_Default_ranged_hashENS8_20_Prime_rehash_policyENS8_17_Hashtable_traitsILb0ELb0ELb1EEEE21_M_uses_single_bucketEPPNS8_15_Hash_node_baseE, symObjAddr: 0x4BE6, symBinAddr: 0x100005CA2, symSize: 0x26 }
  - { offsetInCU: 0x2B77D, offset: 0x2B77D, size: 0x8, addend: 0x0, symName: __ZNSt8__detail14_Node_iteratorISt4pairIKiiELb0ELb0EEC1EPNS_10_Hash_nodeIS3_Lb0EEE, symObjAddr: 0x4BC0, symBinAddr: 0x100005C7C, symSize: 0x26 }
  - { offsetInCU: 0x2B75E, offset: 0x2B75E, size: 0x8, addend: 0x0, symName: __ZNSt10_HashtableIiSt4pairIKiiESaIS2_ENSt8__detail10_Select1stESt8equal_toIiESt4hashIiENS4_18_Mod_range_hashingENS4_20_Default_ranged_hashENS4_20_Prime_rehash_policyENS4_17_Hashtable_traitsILb0ELb0ELb1EEEE22_M_insert_bucket_beginEmPNS4_10_Hash_nodeIS2_Lb0EEE, symObjAddr: 0x4AD0, symBinAddr: 0x100005B8C, symSize: 0xF0 }
  - { offsetInCU: 0x2B7AA, offset: 0x2B7AA, size: 0x8, addend: 0x0, symName: __ZNKSt8__detail15_Hash_code_baseIiSt4pairIKiiENS_10_Select1stESt4hashIiENS_18_Mod_range_hashingENS_20_Default_ranged_hashELb0EE13_M_store_codeERNS_21_Hash_node_code_cacheILb0EEEm, symObjAddr: 0x4ABC, symBinAddr: 0x100005B78, symSize: 0x14 }
  - { offsetInCU: 0x2B7E6, offset: 0x2B7E6, size: 0x8, addend: 0x0, symName: __ZNSt10_HashtableIiSt4pairIKiiESaIS2_ENSt8__detail10_Select1stESt8equal_toIiESt4hashIiENS4_18_Mod_range_hashingENS4_20_Default_ranged_hashENS4_20_Prime_rehash_policyENS4_17_Hashtable_traitsILb0ELb0ELb1EEEE9_M_rehashEmSt17integral_constantIbLb1EE, symObjAddr: 0x4942, symBinAddr: 0x1000059FE, symSize: 0x17A }
  - { offsetInCU: 0x2B894, offset: 0x2B894, size: 0x8, addend: 0x0, symName: __ZNSt8__detail16_Hashtable_allocISaINS_10_Hash_nodeISt4pairIKiiELb0EEEEE16_M_allocate_nodeIJRKSt21piecewise_construct_tSt5tupleIJRS3_EESC_IJEEEEEPS5_DpOT_, symObjAddr: 0x46F4, symBinAddr: 0x1000057B0, symSize: 0x24E }
  - { offsetInCU: 0x2BA97, offset: 0x2BA97, size: 0x8, addend: 0x0, symName: __ZNSt8__detail10_Hash_nodeISt4pairIKiiELb0EEC1Ev, symObjAddr: 0x46D8, symBinAddr: 0x100005794, symSize: 0x1C }
  - { offsetInCU: 0x2BAA6, offset: 0x2BAA6, size: 0x8, addend: 0x0, symName: __ZNKSt10_HashtableIiSt4pairIKiiESaIS2_ENSt8__detail10_Select1stESt8equal_toIiESt4hashIiENS4_18_Mod_range_hashingENS4_20_Default_ranged_hashENS4_20_Prime_rehash_policyENS4_17_Hashtable_traitsILb0ELb0ELb1EEEE19_M_find_before_nodeEmRS1_m, symObjAddr: 0x45FE, symBinAddr: 0x1000056BA, symSize: 0xDA }
  - { offsetInCU: 0x2BB38, offset: 0x2BB38, size: 0x8, addend: 0x0, symName: __ZNKSt8__detail15_Hash_code_baseIiSt4pairIKiiENS_10_Select1stESt4hashIiENS_18_Mod_range_hashingENS_20_Default_ranged_hashELb0EE15_M_bucket_indexEmm, symObjAddr: 0x45D0, symBinAddr: 0x10000568C, symSize: 0x2E }
  - { offsetInCU: 0x2BB84, offset: 0x2BB84, size: 0x8, addend: 0x0, symName: __ZNKSt8__detail15_Hash_code_baseIiSt4pairIKiiENS_10_Select1stESt4hashIiENS_18_Mod_range_hashingENS_20_Default_ranged_hashELb0EE7_M_hashEv, symObjAddr: 0x45B6, symBinAddr: 0x100005672, symSize: 0x1A }
  - { offsetInCU: 0x2BC24, offset: 0x2BC24, size: 0x8, addend: 0x0, symName: __ZNSt8__detail14_Node_iteratorISt4pairIKibELb0ELb0EEC1EPNS_10_Hash_nodeIS3_Lb0EEE, symObjAddr: 0x4590, symBinAddr: 0x10000564C, symSize: 0x26 }
  - { offsetInCU: 0x2BC05, offset: 0x2BC05, size: 0x8, addend: 0x0, symName: __ZNSt10_HashtableIiSt4pairIKibESaIS2_ENSt8__detail10_Select1stESt8equal_toIiESt4hashIiENS4_18_Mod_range_hashingENS4_20_Default_ranged_hashENS4_20_Prime_rehash_policyENS4_17_Hashtable_traitsILb0ELb0ELb1EEEE22_M_insert_bucket_beginEmPNS4_10_Hash_nodeIS2_Lb0EEE, symObjAddr: 0x44A0, symBinAddr: 0x10000555C, symSize: 0xF0 }
  - { offsetInCU: 0x2BC51, offset: 0x2BC51, size: 0x8, addend: 0x0, symName: __ZNKSt8__detail15_Hash_code_baseIiSt4pairIKibENS_10_Select1stESt4hashIiENS_18_Mod_range_hashingENS_20_Default_ranged_hashELb0EE13_M_store_codeERNS_21_Hash_node_code_cacheILb0EEEm, symObjAddr: 0x448C, symBinAddr: 0x100005548, symSize: 0x14 }
  - { offsetInCU: 0x2BC8D, offset: 0x2BC8D, size: 0x8, addend: 0x0, symName: __ZNSt10_HashtableIiSt4pairIKibESaIS2_ENSt8__detail10_Select1stESt8equal_toIiESt4hashIiENS4_18_Mod_range_hashingENS4_20_Default_ranged_hashENS4_20_Prime_rehash_policyENS4_17_Hashtable_traitsILb0ELb0ELb1EEEE9_M_rehashEmSt17integral_constantIbLb1EE, symObjAddr: 0x4312, symBinAddr: 0x1000053CE, symSize: 0x17A }
  - { offsetInCU: 0x2BD3B, offset: 0x2BD3B, size: 0x8, addend: 0x0, symName: __ZNSt8__detail16_Hashtable_allocISaINS_10_Hash_nodeISt4pairIKibELb0EEEEE18_M_deallocate_nodeEPS5_, symObjAddr: 0x42A4, symBinAddr: 0x100005360, symSize: 0x6E }
  - { offsetInCU: 0x2BDF7, offset: 0x2BDF7, size: 0x8, addend: 0x0, symName: __ZNSt8__detail16_Hashtable_allocISaINS_10_Hash_nodeISt4pairIKibELb0EEEEE16_M_allocate_nodeIJRKSt21piecewise_construct_tSt5tupleIJRS3_EESC_IJEEEEEPS5_DpOT_, symObjAddr: 0x4056, symBinAddr: 0x100005112, symSize: 0x24E }
  - { offsetInCU: 0x2BFFA, offset: 0x2BFFA, size: 0x8, addend: 0x0, symName: __ZNSt8__detail10_Hash_nodeISt4pairIKibELb0EEC1Ev, symObjAddr: 0x403A, symBinAddr: 0x1000050F6, symSize: 0x1C }
  - { offsetInCU: 0x2C009, offset: 0x2C009, size: 0x8, addend: 0x0, symName: __ZNKSt10_HashtableIiSt4pairIKibESaIS2_ENSt8__detail10_Select1stESt8equal_toIiESt4hashIiENS4_18_Mod_range_hashingENS4_20_Default_ranged_hashENS4_20_Prime_rehash_policyENS4_17_Hashtable_traitsILb0ELb0ELb1EEEE19_M_find_before_nodeEmRS1_m, symObjAddr: 0x3F60, symBinAddr: 0x10000501C, symSize: 0xDA }
  - { offsetInCU: 0x2C09B, offset: 0x2C09B, size: 0x8, addend: 0x0, symName: __ZNKSt8__detail15_Hash_code_baseIiSt4pairIKibENS_10_Select1stESt4hashIiENS_18_Mod_range_hashingENS_20_Default_ranged_hashELb0EE15_M_bucket_indexEmm, symObjAddr: 0x3F32, symBinAddr: 0x100004FEE, symSize: 0x2E }
  - { offsetInCU: 0x2C0E7, offset: 0x2C0E7, size: 0x8, addend: 0x0, symName: __ZNKSt8__detail15_Hash_code_baseIiSt4pairIKibENS_10_Select1stESt4hashIiENS_18_Mod_range_hashingENS_20_Default_ranged_hashELb0EE7_M_hashEv, symObjAddr: 0x3F18, symBinAddr: 0x100004FD4, symSize: 0x1A }
  - { offsetInCU: 0x2C111, offset: 0x2C111, size: 0x8, addend: 0x0, symName: __ZNSt11_Deque_baseIiSaIiEE16_M_allocate_nodeEv, symObjAddr: 0x3EDA, symBinAddr: 0x100004F96, symSize: 0x3E }
  - { offsetInCU: 0x2C168, offset: 0x2C168, size: 0x8, addend: 0x0, symName: __ZNSt5dequeIiSaIiEE22_M_reserve_map_at_backEm, symObjAddr: 0x3E78, symBinAddr: 0x100004F34, symSize: 0x62 }
  - { offsetInCU: 0x2C1A3, offset: 0x2C1A3, size: 0x8, addend: 0x0, symName: __ZNKSt5dequeIiSaIiEE8max_sizeEv, symObjAddr: 0x3E56, symBinAddr: 0x100004F12, symSize: 0x22 }
  - { offsetInCU: 0x2C1CD, offset: 0x2C1CD, size: 0x8, addend: 0x0, symName: __ZNKSt5dequeIiSaIiEE4sizeEv, symObjAddr: 0x3E2C, symBinAddr: 0x100004EE8, symSize: 0x2A }
  - { offsetInCU: 0x2C28B, offset: 0x2C28B, size: 0x8, addend: 0x0, symName: __ZNKSt11_Deque_baseIiSaIiEE20_M_get_map_allocatorEv, symObjAddr: 0x3DF2, symBinAddr: 0x100004EAE, symSize: 0x3A }
  - { offsetInCU: 0x2C305, offset: 0x2C305, size: 0x8, addend: 0x0, symName: __ZNSt11_Deque_baseIiSaIiEE18_M_deallocate_nodeEPi, symObjAddr: 0x3DA8, symBinAddr: 0x100004E64, symSize: 0x4A }
  - { offsetInCU: 0x2C376, offset: 0x2C376, size: 0x8, addend: 0x0, symName: __ZNSt15_Deque_iteratorIiRiPiE11_M_set_nodeEPS1_, symObjAddr: 0x3D58, symBinAddr: 0x100004E14, symSize: 0x50 }
  - { offsetInCU: 0x2C3B1, offset: 0x2C3B1, size: 0x8, addend: 0x0, symName: __ZNSt11_Deque_baseIiSaIiEE15_M_create_nodesEPPiS3_, symObjAddr: 0x3CD8, symBinAddr: 0x100004D94, symSize: 0x80 }
  - { offsetInCU: 0x2C40F, offset: 0x2C40F, size: 0x8, addend: 0x0, symName: __ZNSt11_Deque_baseIiSaIiEE15_M_allocate_mapEm, symObjAddr: 0x3C5C, symBinAddr: 0x100004D18, symSize: 0x7C }
  - { offsetInCU: 0x2C505, offset: 0x2C505, size: 0x8, addend: 0x0, symName: __ZNSt15__new_allocatorIiED2Ev, symObjAddr: 0x3C50, symBinAddr: 0x100004D0C, symSize: 0xC }
  - { offsetInCU: 0x2C558, offset: 0x2C558, size: 0x8, addend: 0x0, symName: __ZNSt11_Deque_baseIiSaIiEE16_Deque_impl_dataC2Ev, symObjAddr: 0x3C0A, symBinAddr: 0x100004CC6, symSize: 0x46 }
  - { offsetInCU: 0x2C567, offset: 0x2C567, size: 0x8, addend: 0x0, symName: __ZNSt8__detail16_Hashtable_allocISaINS_10_Hash_nodeISt4pairIKiiELb0EEEEE21_M_deallocate_bucketsEPPNS_15_Hash_node_baseEm, symObjAddr: 0x3B94, symBinAddr: 0x100004C50, symSize: 0x76 }
  - { offsetInCU: 0x2C679, offset: 0x2C679, size: 0x8, addend: 0x0, symName: __ZNKSt10_HashtableIiSt4pairIKiiESaIS2_ENSt8__detail10_Select1stESt8equal_toIiESt4hashIiENS4_18_Mod_range_hashingENS4_20_Default_ranged_hashENS4_20_Prime_rehash_policyENS4_17_Hashtable_traitsILb0ELb0ELb1EEEE21_M_uses_single_bucketEPPNS4_15_Hash_node_baseE, symObjAddr: 0x3B6E, symBinAddr: 0x100004C2A, symSize: 0x26 }
  - { offsetInCU: 0x2C6B4, offset: 0x2C6B4, size: 0x8, addend: 0x0, symName: __ZNSt8__detail16_Hashtable_allocISaINS_10_Hash_nodeISt4pairIKiiELb0EEEEE18_M_deallocate_nodeEPS5_, symObjAddr: 0x3B00, symBinAddr: 0x100004BBC, symSize: 0x6E }
  - { offsetInCU: 0x2C770, offset: 0x2C770, size: 0x8, addend: 0x0, symName: __ZNKSt8__detail10_Hash_nodeISt4pairIKiiELb0EE7_M_nextEv, symObjAddr: 0x3AEE, symBinAddr: 0x100004BAA, symSize: 0x12 }
  - { offsetInCU: 0x2C79F, offset: 0x2C79F, size: 0x8, addend: 0x0, symName: __ZN9__gnu_cxx16__aligned_membufIiE7_M_addrEv, symObjAddr: 0x3AE0, symBinAddr: 0x100004B9C, symSize: 0xE }
  - { offsetInCU: 0x2C826, offset: 0x2C826, size: 0x8, addend: 0x0, symName: __ZNSt7__cxx114listIiSaIiEE4backEv, symObjAddr: 0x3AAA, symBinAddr: 0x100004B66, symSize: 0x36 }
  - { offsetInCU: 0x2C861, offset: 0x2C861, size: 0x8, addend: 0x0, symName: __ZNKSt10_List_nodeIiE9_M_valptrEv, symObjAddr: 0x3A8C, symBinAddr: 0x100004B48, symSize: 0x1E }
  - { offsetInCU: 0x2C8AE, offset: 0x2C8AE, size: 0x8, addend: 0x0, symName: __ZN9__gnu_cxx16__aligned_bufferISt4pairIKiNSt7__cxx114listIiSaIiEEEEE6_M_ptrEv, symObjAddr: 0x3A72, symBinAddr: 0x100004B2E, symSize: 0x1A }
  - { offsetInCU: 0x2C967, offset: 0x2C967, size: 0x8, addend: 0x0, symName: __ZNSt8__detail19_Node_iterator_baseISt4pairIKiNSt7__cxx114listIiSaIiEEEELb0EEC2EPNS_10_Hash_nodeIS7_Lb0EEE, symObjAddr: 0x3A58, symBinAddr: 0x100004B14, symSize: 0x1A }
  - { offsetInCU: 0x2C92F, offset: 0x2C92F, size: 0x8, addend: 0x0, symName: __ZNSt15__allocated_ptrISaISt10_List_nodeIiEEEaSEDn, symObjAddr: 0x3A3A, symBinAddr: 0x100004AF6, symSize: 0x1E }
  - { offsetInCU: 0x2C9F8, offset: 0x2C9F8, size: 0x8, addend: 0x0, symName: __ZNSt15__allocated_ptrISaISt10_List_nodeIiEEED1Ev, symObjAddr: 0x39E6, symBinAddr: 0x100004AA2, symSize: 0x54 }
  - { offsetInCU: 0x2CA8E, offset: 0x2CA8E, size: 0x8, addend: 0x0, symName: __ZNSt15__allocated_ptrISaISt10_List_nodeIiEEEC1ERS2_PS1_, symObjAddr: 0x39B0, symBinAddr: 0x100004A6C, symSize: 0x36 }
  - { offsetInCU: 0x2CA91, offset: 0x2CA91, size: 0x8, addend: 0x0, symName: __ZNSt7__cxx1110_List_baseIiSaIiEE11_M_get_nodeEv, symObjAddr: 0x3978, symBinAddr: 0x100004A34, symSize: 0x38 }
  - { offsetInCU: 0x2CAE8, offset: 0x2CAE8, size: 0x8, addend: 0x0, symName: __ZNSt10_HashtableIiSt4pairIKiNSt7__cxx114listIiSaIiEEEESaIS6_ENSt8__detail10_Select1stESt8equal_toIiESt4hashIiENS8_18_Mod_range_hashingENS8_20_Default_ranged_hashENS8_20_Prime_rehash_policyENS8_17_Hashtable_traitsILb0ELb0ELb1EEEE22_M_insert_bucket_beginEmPNS8_10_Hash_nodeIS6_Lb0EEE, symObjAddr: 0x3888, symBinAddr: 0x100004944, symSize: 0xF0 }
  - { offsetInCU: 0x2CB34, offset: 0x2CB34, size: 0x8, addend: 0x0, symName: __ZNKSt8__detail15_Hash_code_baseIiSt4pairIKiNSt7__cxx114listIiSaIiEEEENS_10_Select1stESt4hashIiENS_18_Mod_range_hashingENS_20_Default_ranged_hashELb0EE13_M_store_codeERNS_21_Hash_node_code_cacheILb0EEEm, symObjAddr: 0x3874, symBinAddr: 0x100004930, symSize: 0x14 }
  - { offsetInCU: 0x2CB70, offset: 0x2CB70, size: 0x8, addend: 0x0, symName: __ZNSt10_HashtableIiSt4pairIKiNSt7__cxx114listIiSaIiEEEESaIS6_ENSt8__detail10_Select1stESt8equal_toIiESt4hashIiENS8_18_Mod_range_hashingENS8_20_Default_ranged_hashENS8_20_Prime_rehash_policyENS8_17_Hashtable_traitsILb0ELb0ELb1EEEE9_M_rehashEmSt17integral_constantIbLb1EE, symObjAddr: 0x36FA, symBinAddr: 0x1000047B6, symSize: 0x17A }
  - { offsetInCU: 0x2CC80, offset: 0x2CC80, size: 0x8, addend: 0x0, symName: __ZNSt8__detail17_RehashStateGuardINS_20_Prime_rehash_policyEED1Ev, symObjAddr: 0x36C4, symBinAddr: 0x100004780, symSize: 0x36 }
  - { offsetInCU: 0x2CCD1, offset: 0x2CCD1, size: 0x8, addend: 0x0, symName: __ZNSt8__detail17_RehashStateGuardINS_20_Prime_rehash_policyEEC1ERS1_, symObjAddr: 0x368A, symBinAddr: 0x100004746, symSize: 0x3A }
  - { offsetInCU: 0x2CCBF, offset: 0x2CCBF, size: 0x8, addend: 0x0, symName: __ZNSt8__detail16_Hashtable_allocISaINS_10_Hash_nodeISt4pairIKiNSt7__cxx114listIiSaIiEEEELb0EEEEE18_M_deallocate_nodeEPS9_, symObjAddr: 0x3610, symBinAddr: 0x1000046CC, symSize: 0x7A }
  - { offsetInCU: 0x2CD7B, offset: 0x2CD7B, size: 0x8, addend: 0x0, symName: __ZNSt8__detail16_Hashtable_allocISaINS_10_Hash_nodeISt4pairIKiNSt7__cxx114listIiSaIiEEEELb0EEEEE16_M_allocate_nodeIJRKSt21piecewise_construct_tSt5tupleIJRS3_EESG_IJEEEEEPS9_DpOT_, symObjAddr: 0x33C2, symBinAddr: 0x10000447E, symSize: 0x24E }
  - { offsetInCU: 0x2CF96, offset: 0x2CF96, size: 0x8, addend: 0x0, symName: __ZNSt8__detail10_Hash_nodeISt4pairIKiNSt7__cxx114listIiSaIiEEEELb0EEC1Ev, symObjAddr: 0x33A6, symBinAddr: 0x100004462, symSize: 0x1C }
  - { offsetInCU: 0x2CF7A, offset: 0x2CF7A, size: 0x8, addend: 0x0, symName: __ZSt7forwardISt5tupleIJEEEOT_RNSt16remove_referenceIS2_E4typeE, symObjAddr: 0x3398, symBinAddr: 0x100004454, symSize: 0xE }
  - { offsetInCU: 0x2CFB3, offset: 0x2CFB3, size: 0x8, addend: 0x0, symName: __ZSt7forwardISt5tupleIJRKiEEEOT_RNSt16remove_referenceIS4_E4typeE, symObjAddr: 0x338A, symBinAddr: 0x100004446, symSize: 0xE }
  - { offsetInCU: 0x2CFEC, offset: 0x2CFEC, size: 0x8, addend: 0x0, symName: __ZSt7forwardIRKSt21piecewise_construct_tEOT_RNSt16remove_referenceIS3_E4typeE, symObjAddr: 0x337C, symBinAddr: 0x100004438, symSize: 0xE }
  - { offsetInCU: 0x2D06A, offset: 0x2D06A, size: 0x8, addend: 0x0, symName: __ZNSt11_Tuple_implILm0EJRKiEEC2ES1_, symObjAddr: 0x3356, symBinAddr: 0x100004412, symSize: 0x26 }
  - { offsetInCU: 0x2D079, offset: 0x2D079, size: 0x8, addend: 0x0, symName: __ZNKSt10_HashtableIiSt4pairIKiNSt7__cxx114listIiSaIiEEEESaIS6_ENSt8__detail10_Select1stESt8equal_toIiESt4hashIiENS8_18_Mod_range_hashingENS8_20_Default_ranged_hashENS8_20_Prime_rehash_policyENS8_17_Hashtable_traitsILb0ELb0ELb1EEEE19_M_find_before_nodeEmRS1_m, symObjAddr: 0x327C, symBinAddr: 0x100004338, symSize: 0xDA }
  - { offsetInCU: 0x2D10B, offset: 0x2D10B, size: 0x8, addend: 0x0, symName: __ZNKSt8__detail15_Hash_code_baseIiSt4pairIKiNSt7__cxx114listIiSaIiEEEENS_10_Select1stESt4hashIiENS_18_Mod_range_hashingENS_20_Default_ranged_hashELb0EE15_M_bucket_indexEmm, symObjAddr: 0x324E, symBinAddr: 0x10000430A, symSize: 0x2E }
  - { offsetInCU: 0x2D157, offset: 0x2D157, size: 0x8, addend: 0x0, symName: __ZNKSt8__detail15_Hash_code_baseIiSt4pairIKiNSt7__cxx114listIiSaIiEEEENS_10_Select1stESt4hashIiENS_18_Mod_range_hashingENS_20_Default_ranged_hashELb0EE7_M_hashEv, symObjAddr: 0x3234, symBinAddr: 0x1000042F0, symSize: 0x1A }
  - { offsetInCU: 0x2D181, offset: 0x2D181, size: 0x8, addend: 0x0, symName: __ZNSt10_HashtableIiSt4pairIKibESaIS2_ENSt8__detail10_Select1stESt8equal_toIiESt4hashIiENS4_18_Mod_range_hashingENS4_20_Default_ranged_hashENS4_20_Prime_rehash_policyENS4_17_Hashtable_traitsILb0ELb0ELb1EEEE21_M_deallocate_bucketsEPPNS4_15_Hash_node_baseEm, symObjAddr: 0x31EC, symBinAddr: 0x1000042A8, symSize: 0x48 }
  - { offsetInCU: 0x2D1CD, offset: 0x2D1CD, size: 0x8, addend: 0x0, symName: __ZNSt8__detail16_Hashtable_allocISaINS_10_Hash_nodeISt4pairIKibELb0EEEEE19_M_deallocate_nodesEPS5_, symObjAddr: 0x31A4, symBinAddr: 0x100004260, symSize: 0x48 }
  - { offsetInCU: 0x2D22C, offset: 0x2D22C, size: 0x8, addend: 0x0, symName: __ZNKSt10_HashtableIiSt4pairIKibESaIS2_ENSt8__detail10_Select1stESt8equal_toIiESt4hashIiENS4_18_Mod_range_hashingENS4_20_Default_ranged_hashENS4_20_Prime_rehash_policyENS4_17_Hashtable_traitsILb0ELb0ELb1EEEE8_M_beginEv, symObjAddr: 0x3192, symBinAddr: 0x10000424E, symSize: 0x12 }
  - { offsetInCU: 0x2D26C, offset: 0x2D26C, size: 0x8, addend: 0x0, symName: __ZNSt10_HashtableIiSt4pairIKiNSt7__cxx114listIiSaIiEEEESaIS6_ENSt8__detail10_Select1stESt8equal_toIiESt4hashIiENS8_18_Mod_range_hashingENS8_20_Default_ranged_hashENS8_20_Prime_rehash_policyENS8_17_Hashtable_traitsILb0ELb0ELb1EEEE21_M_deallocate_bucketsEPPNS8_15_Hash_node_baseEm, symObjAddr: 0x314A, symBinAddr: 0x100004206, symSize: 0x48 }
  - { offsetInCU: 0x2D2B8, offset: 0x2D2B8, size: 0x8, addend: 0x0, symName: __ZNSt8__detail16_Hashtable_allocISaINS_10_Hash_nodeISt4pairIKiNSt7__cxx114listIiSaIiEEEELb0EEEEE19_M_deallocate_nodesEPS9_, symObjAddr: 0x3102, symBinAddr: 0x1000041BE, symSize: 0x48 }
  - { offsetInCU: 0x2D32D, offset: 0x2D32D, size: 0x8, addend: 0x0, symName: __ZNSt5dequeIiSaIiEE16_M_pop_front_auxEv, symObjAddr: 0x307A, symBinAddr: 0x100004136, symSize: 0x88 }
  - { offsetInCU: 0x2D3DF, offset: 0x2D3DF, size: 0x8, addend: 0x0, symName: __ZNKSt15_Deque_iteratorIiRiPiEdeEv, symObjAddr: 0x3068, symBinAddr: 0x100004124, symSize: 0x12 }
  - { offsetInCU: 0x2D405, offset: 0x2D405, size: 0x8, addend: 0x0, symName: __ZSteqRKSt15_Deque_iteratorIiRiPiES4_, symObjAddr: 0x3046, symBinAddr: 0x100004102, symSize: 0x22 }
  - { offsetInCU: 0x2D444, offset: 0x2D444, size: 0x8, addend: 0x0, symName: __ZNKSt8__detail14_Node_iteratorISt4pairIKiiELb0ELb0EEptEv, symObjAddr: 0x301C, symBinAddr: 0x1000040D8, symSize: 0x2A }
  - { offsetInCU: 0x2D492, offset: 0x2D492, size: 0x8, addend: 0x0, symName: __ZNSt10_HashtableIiSt4pairIKiiESaIS2_ENSt8__detail10_Select1stESt8equal_toIiESt4hashIiENS4_18_Mod_range_hashingENS4_20_Default_ranged_hashENS4_20_Prime_rehash_policyENS4_17_Hashtable_traitsILb0ELb0ELb1EEEE21_M_insert_unique_nodeEmmPNS4_10_Hash_nodeIS2_Lb0EEEm, symObjAddr: 0x2EF0, symBinAddr: 0x100003FAC, symSize: 0x12C }
  - { offsetInCU: 0x2D628, offset: 0x2D628, size: 0x8, addend: 0x0, symName: __ZNSt10_HashtableIiSt4pairIKiiESaIS2_ENSt8__detail10_Select1stESt8equal_toIiESt4hashIiENS4_18_Mod_range_hashingENS4_20_Default_ranged_hashENS4_20_Prime_rehash_policyENS4_17_Hashtable_traitsILb0ELb0ELb1EEEE12_Scoped_nodeD1Ev, symObjAddr: 0x2EBA, symBinAddr: 0x100003F76, symSize: 0x36 }
  - { offsetInCU: 0x2D713, offset: 0x2D713, size: 0x8, addend: 0x0, symName: __ZNSt10_HashtableIiSt4pairIKiiESaIS2_ENSt8__detail10_Select1stESt8equal_toIiESt4hashIiENS4_18_Mod_range_hashingENS4_20_Default_ranged_hashENS4_20_Prime_rehash_policyENS4_17_Hashtable_traitsILb0ELb0ELb1EEEE12_Scoped_nodeC1IJRKSt21piecewise_construct_tSt5tupleIJRS1_EESL_IJEEEEEPNS4_16_Hashtable_allocISaINS4_10_Hash_nodeIS2_Lb0EEEEEEDpOT_, symObjAddr: 0x2E3A, symBinAddr: 0x100003EF6, symSize: 0x80 }
  - { offsetInCU: 0x2D644, offset: 0x2D644, size: 0x8, addend: 0x0, symName: __ZNKSt10_HashtableIiSt4pairIKiiESaIS2_ENSt8__detail10_Select1stESt8equal_toIiESt4hashIiENS4_18_Mod_range_hashingENS4_20_Default_ranged_hashENS4_20_Prime_rehash_policyENS4_17_Hashtable_traitsILb0ELb0ELb1EEEE12_M_find_nodeEmRS1_m, symObjAddr: 0x2DEE, symBinAddr: 0x100003EAA, symSize: 0x4C }
  - { offsetInCU: 0x2D6B2, offset: 0x2D6B2, size: 0x8, addend: 0x0, symName: __ZNKSt10_HashtableIiSt4pairIKiiESaIS2_ENSt8__detail10_Select1stESt8equal_toIiESt4hashIiENS4_18_Mod_range_hashingENS4_20_Default_ranged_hashENS4_20_Prime_rehash_policyENS4_17_Hashtable_traitsILb0ELb0ELb1EEEE15_M_bucket_indexEm, symObjAddr: 0x2DC0, symBinAddr: 0x100003E7C, symSize: 0x2E }
  - { offsetInCU: 0x2D6ED, offset: 0x2D6ED, size: 0x8, addend: 0x0, symName: __ZNKSt8__detail15_Hash_code_baseIiSt4pairIKiiENS_10_Select1stESt4hashIiENS_18_Mod_range_hashingENS_20_Default_ranged_hashELb0EE12_M_hash_codeERS2_, symObjAddr: 0x2D8E, symBinAddr: 0x100003E4A, symSize: 0x32 }
  - { offsetInCU: 0x2D728, offset: 0x2D728, size: 0x8, addend: 0x0, symName: __ZNKSt8__detail14_Node_iteratorISt4pairIKibELb0ELb0EEptEv, symObjAddr: 0x2D64, symBinAddr: 0x100003E20, symSize: 0x2A }
  - { offsetInCU: 0x2D776, offset: 0x2D776, size: 0x8, addend: 0x0, symName: __ZNSt10_HashtableIiSt4pairIKibESaIS2_ENSt8__detail10_Select1stESt8equal_toIiESt4hashIiENS4_18_Mod_range_hashingENS4_20_Default_ranged_hashENS4_20_Prime_rehash_policyENS4_17_Hashtable_traitsILb0ELb0ELb1EEEE21_M_insert_unique_nodeEmmPNS4_10_Hash_nodeIS2_Lb0EEEm, symObjAddr: 0x2C38, symBinAddr: 0x100003CF4, symSize: 0x12C }
  - { offsetInCU: 0x2D90C, offset: 0x2D90C, size: 0x8, addend: 0x0, symName: __ZNSt10_HashtableIiSt4pairIKibESaIS2_ENSt8__detail10_Select1stESt8equal_toIiESt4hashIiENS4_18_Mod_range_hashingENS4_20_Default_ranged_hashENS4_20_Prime_rehash_policyENS4_17_Hashtable_traitsILb0ELb0ELb1EEEE12_Scoped_nodeD1Ev, symObjAddr: 0x2C02, symBinAddr: 0x100003CBE, symSize: 0x36 }
  - { offsetInCU: 0x2D9F7, offset: 0x2D9F7, size: 0x8, addend: 0x0, symName: __ZNSt10_HashtableIiSt4pairIKibESaIS2_ENSt8__detail10_Select1stESt8equal_toIiESt4hashIiENS4_18_Mod_range_hashingENS4_20_Default_ranged_hashENS4_20_Prime_rehash_policyENS4_17_Hashtable_traitsILb0ELb0ELb1EEEE12_Scoped_nodeC1IJRKSt21piecewise_construct_tSt5tupleIJRS1_EESL_IJEEEEEPNS4_16_Hashtable_allocISaINS4_10_Hash_nodeIS2_Lb0EEEEEEDpOT_, symObjAddr: 0x2B82, symBinAddr: 0x100003C3E, symSize: 0x80 }
  - { offsetInCU: 0x2D928, offset: 0x2D928, size: 0x8, addend: 0x0, symName: __ZNKSt10_HashtableIiSt4pairIKibESaIS2_ENSt8__detail10_Select1stESt8equal_toIiESt4hashIiENS4_18_Mod_range_hashingENS4_20_Default_ranged_hashENS4_20_Prime_rehash_policyENS4_17_Hashtable_traitsILb0ELb0ELb1EEEE12_M_find_nodeEmRS1_m, symObjAddr: 0x2B36, symBinAddr: 0x100003BF2, symSize: 0x4C }
  - { offsetInCU: 0x2D996, offset: 0x2D996, size: 0x8, addend: 0x0, symName: __ZNKSt10_HashtableIiSt4pairIKibESaIS2_ENSt8__detail10_Select1stESt8equal_toIiESt4hashIiENS4_18_Mod_range_hashingENS4_20_Default_ranged_hashENS4_20_Prime_rehash_policyENS4_17_Hashtable_traitsILb0ELb0ELb1EEEE15_M_bucket_indexEm, symObjAddr: 0x2B08, symBinAddr: 0x100003BC4, symSize: 0x2E }
  - { offsetInCU: 0x2D9D1, offset: 0x2D9D1, size: 0x8, addend: 0x0, symName: __ZNKSt8__detail15_Hash_code_baseIiSt4pairIKibENS_10_Select1stESt4hashIiENS_18_Mod_range_hashingENS_20_Default_ranged_hashELb0EE12_M_hash_codeERS2_, symObjAddr: 0x2AD6, symBinAddr: 0x100003B92, symSize: 0x32 }
  - { offsetInCU: 0x2DA0C, offset: 0x2DA0C, size: 0x8, addend: 0x0, symName: __ZNSt5dequeIiSaIiEE16_M_push_back_auxIJRKiEEEvDpOT_, symObjAddr: 0x29C4, symBinAddr: 0x100003A80, symSize: 0x112 }
  - { offsetInCU: 0x2DB4E, offset: 0x2DB4E, size: 0x8, addend: 0x0, symName: __ZNSt15_Deque_iteratorIiRiPiEC1ERKS2_, symObjAddr: 0x2976, symBinAddr: 0x100003A32, symSize: 0x4E }
  - { offsetInCU: 0x2DB5B, offset: 0x2DB5B, size: 0x8, addend: 0x0, symName: __ZNSt11_Deque_baseIiSaIiEE17_M_deallocate_mapEPPim, symObjAddr: 0x2916, symBinAddr: 0x1000039D2, symSize: 0x60 }
  - { offsetInCU: 0x2DC0D, offset: 0x2DC0D, size: 0x8, addend: 0x0, symName: __ZNSt11_Deque_baseIiSaIiEE16_M_destroy_nodesEPPiS3_, symObjAddr: 0x28CE, symBinAddr: 0x10000398A, symSize: 0x48 }
  - { offsetInCU: 0x2DC7D, offset: 0x2DC7D, size: 0x8, addend: 0x0, symName: __ZNSt11_Deque_baseIiSaIiEE17_M_initialize_mapEm, symObjAddr: 0x2726, symBinAddr: 0x1000037E2, symSize: 0x1A8 }
  - { offsetInCU: 0x2DD4F, offset: 0x2DD4F, size: 0x8, addend: 0x0, symName: __ZNSt11_Deque_baseIiSaIiEE11_Deque_implC1Ev, symObjAddr: 0x26F8, symBinAddr: 0x1000037B4, symSize: 0x2E }
  - { offsetInCU: 0x2DD94, offset: 0x2DD94, size: 0x8, addend: 0x0, symName: __ZNSt10_HashtableIiSt4pairIKiiESaIS2_ENSt8__detail10_Select1stESt8equal_toIiESt4hashIiENS4_18_Mod_range_hashingENS4_20_Default_ranged_hashENS4_20_Prime_rehash_policyENS4_17_Hashtable_traitsILb0ELb0ELb1EEEE21_M_deallocate_bucketsEPPNS4_15_Hash_node_baseEm, symObjAddr: 0x26B0, symBinAddr: 0x10000376C, symSize: 0x48 }
  - { offsetInCU: 0x2DDE0, offset: 0x2DDE0, size: 0x8, addend: 0x0, symName: __ZNSt8__detail16_Hashtable_allocISaINS_10_Hash_nodeISt4pairIKiiELb0EEEEE19_M_deallocate_nodesEPS5_, symObjAddr: 0x2668, symBinAddr: 0x100003724, symSize: 0x48 }
  - { offsetInCU: 0x2DE3F, offset: 0x2DE3F, size: 0x8, addend: 0x0, symName: __ZNKSt10_HashtableIiSt4pairIKiiESaIS2_ENSt8__detail10_Select1stESt8equal_toIiESt4hashIiENS4_18_Mod_range_hashingENS4_20_Default_ranged_hashENS4_20_Prime_rehash_policyENS4_17_Hashtable_traitsILb0ELb0ELb1EEEE8_M_beginEv, symObjAddr: 0x2656, symBinAddr: 0x100003712, symSize: 0x12 }
  - { offsetInCU: 0x2DE7F, offset: 0x2DE7F, size: 0x8, addend: 0x0, symName: __ZN9__gnu_cxx16__aligned_membufIiE6_M_ptrEv, symObjAddr: 0x263C, symBinAddr: 0x1000036F8, symSize: 0x1A }
  - { offsetInCU: 0x2DEA9, offset: 0x2DEA9, size: 0x8, addend: 0x0, symName: __ZNSt7__cxx1110_List_baseIiSaIiEE11_M_put_nodeEPSt10_List_nodeIiE, symObjAddr: 0x25F8, symBinAddr: 0x1000036B4, symSize: 0x44 }
  - { offsetInCU: 0x2DF47, offset: 0x2DF47, size: 0x8, addend: 0x0, symName: __ZNSt7__cxx1110_List_baseIiSaIiEE21_M_get_Node_allocatorEv, symObjAddr: 0x25EA, symBinAddr: 0x1000036A6, symSize: 0xE }
  - { offsetInCU: 0x2DF71, offset: 0x2DF71, size: 0x8, addend: 0x0, symName: __ZNSt7__cxx114listIiSaIiEE12emplace_backIJRKiEEERiDpOT_, symObjAddr: 0x2596, symBinAddr: 0x100003652, symSize: 0x54 }
  - { offsetInCU: 0x2DFB6, offset: 0x2DFB6, size: 0x8, addend: 0x0, symName: __ZNKSt20_List_const_iteratorIiEdeEv, symObjAddr: 0x2578, symBinAddr: 0x100003634, symSize: 0x1E }
  - { offsetInCU: 0x2DFE0, offset: 0x2DFE0, size: 0x8, addend: 0x0, symName: __ZNSt20_List_const_iteratorIiEppEv, symObjAddr: 0x2558, symBinAddr: 0x100003614, symSize: 0x20 }
  - { offsetInCU: 0x2E00D, offset: 0x2E00D, size: 0x8, addend: 0x0, symName: __ZStneRKSt20_List_const_iteratorIiES2_, symObjAddr: 0x2536, symBinAddr: 0x1000035F2, symSize: 0x22 }
  - { offsetInCU: 0x2E0B2, offset: 0x2E0B2, size: 0x8, addend: 0x0, symName: __ZNSt20_List_const_iteratorIiEC1EPKNSt8__detail15_List_node_baseE, symObjAddr: 0x251C, symBinAddr: 0x1000035D8, symSize: 0x1A }
  - { offsetInCU: 0x2E10E, offset: 0x2E10E, size: 0x8, addend: 0x0, symName: __ZNSt7__cxx1110_List_baseIiSaIiEE10_List_implC1EOSaISt10_List_nodeIiEE, symObjAddr: 0x24D2, symBinAddr: 0x10000358E, symSize: 0x4A }
  - { offsetInCU: 0x2E156, offset: 0x2E156, size: 0x8, addend: 0x0, symName: __ZSt4moveIRSaISt10_List_nodeIiEEEONSt16remove_referenceIT_E4typeEOS5_, symObjAddr: 0x24C3, symBinAddr: 0x10000357F, symSize: 0xF }
  - { offsetInCU: 0x2E1DA, offset: 0x2E1DA, size: 0x8, addend: 0x0, symName: __ZNSt15__new_allocatorISt10_List_nodeIiEED2Ev, symObjAddr: 0x24B8, symBinAddr: 0x100003574, symSize: 0xB }
  - { offsetInCU: 0x2E202, offset: 0x2E202, size: 0x8, addend: 0x0, symName: __ZNKSt8__detail10_Hash_nodeISt4pairIKiNSt7__cxx114listIiSaIiEEEELb0EE7_M_nextEv, symObjAddr: 0x24A6, symBinAddr: 0x100003562, symSize: 0x12 }
  - { offsetInCU: 0x2E2BA, offset: 0x2E2BA, size: 0x8, addend: 0x0, symName: __ZNSt8__detail14_Node_iteratorISt4pairIKiNSt7__cxx114listIiSaIiEEEELb0ELb0EEC1EPNS_10_Hash_nodeIS7_Lb0EEE, symObjAddr: 0x2480, symBinAddr: 0x10000353C, symSize: 0x26 }
  - { offsetInCU: 0x2E283, offset: 0x2E283, size: 0x8, addend: 0x0, symName: __ZNKSt10_HashtableIiSt4pairIKiNSt7__cxx114listIiSaIiEEEESaIS6_ENSt8__detail10_Select1stESt8equal_toIiESt4hashIiENS8_18_Mod_range_hashingENS8_20_Default_ranged_hashENS8_20_Prime_rehash_policyENS8_17_Hashtable_traitsILb0ELb0ELb1EEEE8_M_beginEv, symObjAddr: 0x246E, symBinAddr: 0x10000352A, symSize: 0x12 }
  - { offsetInCU: 0x2E2AD, offset: 0x2E2AD, size: 0x8, addend: 0x0, symName: __ZNSt7__cxx1110_List_baseIiSaIiEE11_M_inc_sizeEm, symObjAddr: 0x2448, symBinAddr: 0x100003504, symSize: 0x26 }
  - { offsetInCU: 0x2E2EE, offset: 0x2E2EE, size: 0x8, addend: 0x0, symName: __ZNSt7__cxx114listIiSaIiEE14_M_create_nodeIJRKiEEEPSt10_List_nodeIiEDpOT_, symObjAddr: 0x2364, symBinAddr: 0x100003420, symSize: 0xE4 }
  - { offsetInCU: 0x2E3DC, offset: 0x2E3DC, size: 0x8, addend: 0x0, symName: __ZSt7forwardIRKiEOT_RNSt16remove_referenceIS2_E4typeE, symObjAddr: 0x2356, symBinAddr: 0x100003412, symSize: 0xE }
  - { offsetInCU: 0x2E412, offset: 0x2E412, size: 0x8, addend: 0x0, symName: __ZNKSt8__detail14_Node_iteratorISt4pairIKiNSt7__cxx114listIiSaIiEEEELb0ELb0EEptEv, symObjAddr: 0x232C, symBinAddr: 0x1000033E8, symSize: 0x2A }
  - { offsetInCU: 0x2E460, offset: 0x2E460, size: 0x8, addend: 0x0, symName: __ZNSt10_HashtableIiSt4pairIKiNSt7__cxx114listIiSaIiEEEESaIS6_ENSt8__detail10_Select1stESt8equal_toIiESt4hashIiENS8_18_Mod_range_hashingENS8_20_Default_ranged_hashENS8_20_Prime_rehash_policyENS8_17_Hashtable_traitsILb0ELb0ELb1EEEE21_M_insert_unique_nodeEmmPNS8_10_Hash_nodeIS6_Lb0EEEm, symObjAddr: 0x2200, symBinAddr: 0x1000032BC, symSize: 0x12C }
  - { offsetInCU: 0x2E60E, offset: 0x2E60E, size: 0x8, addend: 0x0, symName: __ZNSt10_HashtableIiSt4pairIKiNSt7__cxx114listIiSaIiEEEESaIS6_ENSt8__detail10_Select1stESt8equal_toIiESt4hashIiENS8_18_Mod_range_hashingENS8_20_Default_ranged_hashENS8_20_Prime_rehash_policyENS8_17_Hashtable_traitsILb0ELb0ELb1EEEE12_Scoped_nodeD1Ev, symObjAddr: 0x21CA, symBinAddr: 0x100003286, symSize: 0x36 }
  - { offsetInCU: 0x2E6F9, offset: 0x2E6F9, size: 0x8, addend: 0x0, symName: __ZNSt10_HashtableIiSt4pairIKiNSt7__cxx114listIiSaIiEEEESaIS6_ENSt8__detail10_Select1stESt8equal_toIiESt4hashIiENS8_18_Mod_range_hashingENS8_20_Default_ranged_hashENS8_20_Prime_rehash_policyENS8_17_Hashtable_traitsILb0ELb0ELb1EEEE12_Scoped_nodeC1IJRKSt21piecewise_construct_tSt5tupleIJRS1_EESP_IJEEEEEPNS8_16_Hashtable_allocISaINS8_10_Hash_nodeIS6_Lb0EEEEEEDpOT_, symObjAddr: 0x214A, symBinAddr: 0x100003206, symSize: 0x80 }
  - { offsetInCU: 0x2E64D, offset: 0x2E64D, size: 0x8, addend: 0x0, symName: __ZNSt5tupleIJRKiEEC1ILb1ELb1EEES1_, symObjAddr: 0x2124, symBinAddr: 0x1000031E0, symSize: 0x26 }
  - { offsetInCU: 0x2E667, offset: 0x2E667, size: 0x8, addend: 0x0, symName: __ZNKSt10_HashtableIiSt4pairIKiNSt7__cxx114listIiSaIiEEEESaIS6_ENSt8__detail10_Select1stESt8equal_toIiESt4hashIiENS8_18_Mod_range_hashingENS8_20_Default_ranged_hashENS8_20_Prime_rehash_policyENS8_17_Hashtable_traitsILb0ELb0ELb1EEEE12_M_find_nodeEmRS1_m, symObjAddr: 0x20D8, symBinAddr: 0x100003194, symSize: 0x4C }
  - { offsetInCU: 0x2E6D5, offset: 0x2E6D5, size: 0x8, addend: 0x0, symName: __ZNKSt10_HashtableIiSt4pairIKiNSt7__cxx114listIiSaIiEEEESaIS6_ENSt8__detail10_Select1stESt8equal_toIiESt4hashIiENS8_18_Mod_range_hashingENS8_20_Default_ranged_hashENS8_20_Prime_rehash_policyENS8_17_Hashtable_traitsILb0ELb0ELb1EEEE15_M_bucket_indexEm, symObjAddr: 0x20AA, symBinAddr: 0x100003166, symSize: 0x2E }
  - { offsetInCU: 0x2E710, offset: 0x2E710, size: 0x8, addend: 0x0, symName: __ZNKSt8__detail15_Hash_code_baseIiSt4pairIKiNSt7__cxx114listIiSaIiEEEENS_10_Select1stESt4hashIiENS_18_Mod_range_hashingENS_20_Default_ranged_hashELb0EE12_M_hash_codeERS2_, symObjAddr: 0x2078, symBinAddr: 0x100003134, symSize: 0x32 }
  - { offsetInCU: 0x2E74B, offset: 0x2E74B, size: 0x8, addend: 0x0, symName: __ZNSt10_HashtableIiSt4pairIKibESaIS2_ENSt8__detail10_Select1stESt8equal_toIiESt4hashIiENS4_18_Mod_range_hashingENS4_20_Default_ranged_hashENS4_20_Prime_rehash_policyENS4_17_Hashtable_traitsILb0ELb0ELb1EEEE21_M_deallocate_bucketsEv, symObjAddr: 0x204A, symBinAddr: 0x100003106, symSize: 0x2E }
  - { offsetInCU: 0x2E775, offset: 0x2E775, size: 0x8, addend: 0x0, symName: __ZNSt10_HashtableIiSt4pairIKibESaIS2_ENSt8__detail10_Select1stESt8equal_toIiESt4hashIiENS4_18_Mod_range_hashingENS4_20_Default_ranged_hashENS4_20_Prime_rehash_policyENS4_17_Hashtable_traitsILb0ELb0ELb1EEEE5clearEv, symObjAddr: 0x1FE0, symBinAddr: 0x10000309C, symSize: 0x6A }
  - { offsetInCU: 0x2E807, offset: 0x2E807, size: 0x8, addend: 0x0, symName: __ZNSt15__new_allocatorINSt8__detail10_Hash_nodeISt4pairIKibELb0EEEED2Ev, symObjAddr: 0x1FD4, symBinAddr: 0x100003090, symSize: 0xC }
  - { offsetInCU: 0x2E7FF, offset: 0x2E7FF, size: 0x8, addend: 0x0, symName: __ZNSt10_HashtableIiSt4pairIKiNSt7__cxx114listIiSaIiEEEESaIS6_ENSt8__detail10_Select1stESt8equal_toIiESt4hashIiENS8_18_Mod_range_hashingENS8_20_Default_ranged_hashENS8_20_Prime_rehash_policyENS8_17_Hashtable_traitsILb0ELb0ELb1EEEE21_M_deallocate_bucketsEv, symObjAddr: 0x1FA6, symBinAddr: 0x100003062, symSize: 0x2E }
  - { offsetInCU: 0x2E829, offset: 0x2E829, size: 0x8, addend: 0x0, symName: __ZNSt10_HashtableIiSt4pairIKiNSt7__cxx114listIiSaIiEEEESaIS6_ENSt8__detail10_Select1stESt8equal_toIiESt4hashIiENS8_18_Mod_range_hashingENS8_20_Default_ranged_hashENS8_20_Prime_rehash_policyENS8_17_Hashtable_traitsILb0ELb0ELb1EEEE5clearEv, symObjAddr: 0x1F3C, symBinAddr: 0x100002FF8, symSize: 0x6A }
  - { offsetInCU: 0x2E8D3, offset: 0x2E8D3, size: 0x8, addend: 0x0, symName: __ZNSt15__new_allocatorINSt8__detail10_Hash_nodeISt4pairIKiNSt7__cxx114listIiSaIiEEEELb0EEEED2Ev, symObjAddr: 0x1F30, symBinAddr: 0x100002FEC, symSize: 0xC }
  - { offsetInCU: 0x2E8B3, offset: 0x2E8B3, size: 0x8, addend: 0x0, symName: __ZNSt5dequeIiSaIiEE9pop_frontEv, symObjAddr: 0x1EB2, symBinAddr: 0x100002F6E, symSize: 0x7E }
  - { offsetInCU: 0x2E938, offset: 0x2E938, size: 0x8, addend: 0x0, symName: __ZNSt5dequeIiSaIiEE5frontEv, symObjAddr: 0x1E84, symBinAddr: 0x100002F40, symSize: 0x2E }
  - { offsetInCU: 0x2E962, offset: 0x2E962, size: 0x8, addend: 0x0, symName: __ZNKSt5dequeIiSaIiEE5emptyEv, symObjAddr: 0x1E5A, symBinAddr: 0x100002F16, symSize: 0x2A }
  - { offsetInCU: 0x2E98C, offset: 0x2E98C, size: 0x8, addend: 0x0, symName: __ZNSt8__detail9_Map_baseIiSt4pairIKiiESaIS3_ENS_10_Select1stESt8equal_toIiESt4hashIiENS_18_Mod_range_hashingENS_20_Default_ranged_hashENS_20_Prime_rehash_policyENS_17_Hashtable_traitsILb0ELb0ELb1EEELb1EEixERS2_, symObjAddr: 0x1D1E, symBinAddr: 0x100002DDA, symSize: 0x13C }
  - { offsetInCU: 0x2EA94, offset: 0x2EA94, size: 0x8, addend: 0x0, symName: __ZNSt8__detail9_Map_baseIiSt4pairIKibESaIS3_ENS_10_Select1stESt8equal_toIiESt4hashIiENS_18_Mod_range_hashingENS_20_Default_ranged_hashENS_20_Prime_rehash_policyENS_17_Hashtable_traitsILb0ELb0ELb1EEELb1EEixERS2_, symObjAddr: 0x1BE2, symBinAddr: 0x100002C9E, symSize: 0x13C }
  - { offsetInCU: 0x2EB9C, offset: 0x2EB9C, size: 0x8, addend: 0x0, symName: __ZNSt5dequeIiSaIiEE9push_backERKi, symObjAddr: 0x1B26, symBinAddr: 0x100002BE2, symSize: 0xBC }
  - { offsetInCU: 0x2EC47, offset: 0x2EC47, size: 0x8, addend: 0x0, symName: __ZNSt5dequeIiSaIiEE15_M_destroy_dataESt15_Deque_iteratorIiRiPiES5_RKS0_, symObjAddr: 0x1B0E, symBinAddr: 0x100002BCA, symSize: 0x18 }
  - { offsetInCU: 0x2ECA2, offset: 0x2ECA2, size: 0x8, addend: 0x0, symName: __ZNSt11_Deque_baseIiSaIiEE19_M_get_Tp_allocatorEv, symObjAddr: 0x1B00, symBinAddr: 0x100002BBC, symSize: 0xE }
  - { offsetInCU: 0x2ECCC, offset: 0x2ECCC, size: 0x8, addend: 0x0, symName: __ZNSt5dequeIiSaIiEE3endEv, symObjAddr: 0x1AD2, symBinAddr: 0x100002B8E, symSize: 0x2E }
  - { offsetInCU: 0x2ECF6, offset: 0x2ECF6, size: 0x8, addend: 0x0, symName: __ZNSt5dequeIiSaIiEE5beginEv, symObjAddr: 0x1AA4, symBinAddr: 0x100002B60, symSize: 0x2E }
  - { offsetInCU: 0x2ED5F, offset: 0x2ED5F, size: 0x8, addend: 0x0, symName: __ZNSt11_Deque_baseIiSaIiEED2Ev, symObjAddr: 0x1A3C, symBinAddr: 0x100002AF8, symSize: 0x68 }
  - { offsetInCU: 0x2ED9F, offset: 0x2ED9F, size: 0x8, addend: 0x0, symName: __ZNSt11_Deque_baseIiSaIiEEC2Ev, symObjAddr: 0x19F0, symBinAddr: 0x100002AAC, symSize: 0x4C }
  - { offsetInCU: 0x2EDFA, offset: 0x2EDFA, size: 0x8, addend: 0x0, symName: __ZNSt11_Deque_baseIiSaIiEE11_Deque_implD1Ev, symObjAddr: 0x19CC, symBinAddr: 0x100002A88, symSize: 0x24 }
  - { offsetInCU: 0x2EE1C, offset: 0x2EE1C, size: 0x8, addend: 0x0, symName: __ZNSt10_HashtableIiSt4pairIKiiESaIS2_ENSt8__detail10_Select1stESt8equal_toIiESt4hashIiENS4_18_Mod_range_hashingENS4_20_Default_ranged_hashENS4_20_Prime_rehash_policyENS4_17_Hashtable_traitsILb0ELb0ELb1EEEE21_M_deallocate_bucketsEv, symObjAddr: 0x199E, symBinAddr: 0x100002A5A, symSize: 0x2E }
  - { offsetInCU: 0x2EE46, offset: 0x2EE46, size: 0x8, addend: 0x0, symName: __ZNSt10_HashtableIiSt4pairIKiiESaIS2_ENSt8__detail10_Select1stESt8equal_toIiESt4hashIiENS4_18_Mod_range_hashingENS4_20_Default_ranged_hashENS4_20_Prime_rehash_policyENS4_17_Hashtable_traitsILb0ELb0ELb1EEEE5clearEv, symObjAddr: 0x1934, symBinAddr: 0x1000029F0, symSize: 0x6A }
  - { offsetInCU: 0x2EED8, offset: 0x2EED8, size: 0x8, addend: 0x0, symName: __ZNSt15__new_allocatorINSt8__detail10_Hash_nodeISt4pairIKiiELb0EEEED2Ev, symObjAddr: 0x1928, symBinAddr: 0x1000029E4, symSize: 0xC }
  - { offsetInCU: 0x2EED0, offset: 0x2EED0, size: 0x8, addend: 0x0, symName: __ZNSt10_List_nodeIiE9_M_valptrEv, symObjAddr: 0x190A, symBinAddr: 0x1000029C6, symSize: 0x1E }
  - { offsetInCU: 0x2EF59, offset: 0x2EF59, size: 0x8, addend: 0x0, symName: __ZNSt14_List_iteratorIiEC1EPNSt8__detail15_List_node_baseE, symObjAddr: 0x18F0, symBinAddr: 0x1000029AC, symSize: 0x1A }
  - { offsetInCU: 0x2EF51, offset: 0x2EF51, size: 0x8, addend: 0x0, symName: __ZNSt7__cxx1110_List_baseIiSaIiEE8_M_clearEv, symObjAddr: 0x1868, symBinAddr: 0x100002924, symSize: 0x88 }
  - { offsetInCU: 0x2F02B, offset: 0x2F02B, size: 0x8, addend: 0x0, symName: __ZNSt7__cxx114listIiSaIiEE22_M_initialize_dispatchISt20_List_const_iteratorIiEEEvT_S6_St12__false_type, symObjAddr: 0x180C, symBinAddr: 0x1000028C8, symSize: 0x5C }
  - { offsetInCU: 0x2F089, offset: 0x2F089, size: 0x8, addend: 0x0, symName: __ZNKSt7__cxx114listIiSaIiEE3endEv, symObjAddr: 0x17E6, symBinAddr: 0x1000028A2, symSize: 0x26 }
  - { offsetInCU: 0x2F0B3, offset: 0x2F0B3, size: 0x8, addend: 0x0, symName: __ZNKSt7__cxx114listIiSaIiEE5beginEv, symObjAddr: 0x17BE, symBinAddr: 0x10000287A, symSize: 0x28 }
  - { offsetInCU: 0x2F13C, offset: 0x2F13C, size: 0x8, addend: 0x0, symName: __ZNSt7__cxx1110_List_baseIiSaIiEEC2EOSaISt10_List_nodeIiEE, symObjAddr: 0x178A, symBinAddr: 0x100002846, symSize: 0x34 }
  - { offsetInCU: 0x2F169, offset: 0x2F169, size: 0x8, addend: 0x0, symName: __ZNKSt7__cxx1110_List_baseIiSaIiEE21_M_get_Node_allocatorEv, symObjAddr: 0x177C, symBinAddr: 0x100002838, symSize: 0xE }
  - { offsetInCU: 0x2F1A9, offset: 0x2F1A9, size: 0x8, addend: 0x0, symName: __ZNSt8__detail19_Node_iterator_baseISt4pairIKiNSt7__cxx114listIiSaIiEEEELb0EE7_M_incrEv, symObjAddr: 0x1756, symBinAddr: 0x100002812, symSize: 0x26 }
  - { offsetInCU: 0x2F1D3, offset: 0x2F1D3, size: 0x8, addend: 0x0, symName: __ZNSt10_HashtableIiSt4pairIKiNSt7__cxx114listIiSaIiEEEESaIS6_ENSt8__detail10_Select1stESt8equal_toIiESt4hashIiENS8_18_Mod_range_hashingENS8_20_Default_ranged_hashENS8_20_Prime_rehash_policyENS8_17_Hashtable_traitsILb0ELb0ELb1EEEE3endEv, symObjAddr: 0x1732, symBinAddr: 0x1000027EE, symSize: 0x24 }
  - { offsetInCU: 0x2F1FD, offset: 0x2F1FD, size: 0x8, addend: 0x0, symName: __ZNSt10_HashtableIiSt4pairIKiNSt7__cxx114listIiSaIiEEEESaIS6_ENSt8__detail10_Select1stESt8equal_toIiESt4hashIiENS8_18_Mod_range_hashingENS8_20_Default_ranged_hashENS8_20_Prime_rehash_policyENS8_17_Hashtable_traitsILb0ELb0ELb1EEEE5beginEv, symObjAddr: 0x1702, symBinAddr: 0x1000027BE, symSize: 0x30 }
  - { offsetInCU: 0x2F227, offset: 0x2F227, size: 0x8, addend: 0x0, symName: __ZNSt7__cxx114listIiSaIiEE9_M_insertIJRKiEEEvSt14_List_iteratorIiEDpOT_, symObjAddr: 0x16A4, symBinAddr: 0x100002760, symSize: 0x5E }
  - { offsetInCU: 0x2F28E, offset: 0x2F28E, size: 0x8, addend: 0x0, symName: __ZNSt8__detail9_Map_baseIiSt4pairIKiNSt7__cxx114listIiSaIiEEEESaIS7_ENS_10_Select1stESt8equal_toIiESt4hashIiENS_18_Mod_range_hashingENS_20_Default_ranged_hashENS_20_Prime_rehash_policyENS_17_Hashtable_traitsILb0ELb0ELb1EEELb1EEixERS2_, symObjAddr: 0x1568, symBinAddr: 0x100002624, symSize: 0x13C }
  - { offsetInCU: 0x2F488, offset: 0x2F488, size: 0x8, addend: 0x0, symName: __ZNSt10_HashtableIiSt4pairIKibESaIS2_ENSt8__detail10_Select1stESt8equal_toIiESt4hashIiENS4_18_Mod_range_hashingENS4_20_Default_ranged_hashENS4_20_Prime_rehash_policyENS4_17_Hashtable_traitsILb0ELb0ELb1EEEED1Ev, symObjAddr: 0x1534, symBinAddr: 0x1000025F0, symSize: 0x34 }
  - { offsetInCU: 0x2F470, offset: 0x2F470, size: 0x8, addend: 0x0, symName: __ZNSt8__detail21_Hashtable_ebo_helperILi0ESaINS_10_Hash_nodeISt4pairIKibELb0EEEELb1EEC2Ev, symObjAddr: 0x1516, symBinAddr: 0x1000025D2, symSize: 0x1E }
  - { offsetInCU: 0x2F591, offset: 0x2F591, size: 0x8, addend: 0x0, symName: __ZNSt10_HashtableIiSt4pairIKiNSt7__cxx114listIiSaIiEEEESaIS6_ENSt8__detail10_Select1stESt8equal_toIiESt4hashIiENS8_18_Mod_range_hashingENS8_20_Default_ranged_hashENS8_20_Prime_rehash_policyENS8_17_Hashtable_traitsILb0ELb0ELb1EEEED1Ev, symObjAddr: 0x14E2, symBinAddr: 0x10000259E, symSize: 0x34 }
  - { offsetInCU: 0x2F579, offset: 0x2F579, size: 0x8, addend: 0x0, symName: __ZNSt8__detail21_Hashtable_ebo_helperILi0ESaINS_10_Hash_nodeISt4pairIKiNSt7__cxx114listIiSaIiEEEELb0EEEELb1EEC2Ev, symObjAddr: 0x14C4, symBinAddr: 0x100002580, symSize: 0x1E }
  - { offsetInCU: 0x2F578, offset: 0x2F578, size: 0x8, addend: 0x0, symName: __ZNSt5queueIiSt5dequeIiSaIiEEE3popEv, symObjAddr: 0x14A8, symBinAddr: 0x100002564, symSize: 0x1C }
  - { offsetInCU: 0x2F5A2, offset: 0x2F5A2, size: 0x8, addend: 0x0, symName: __ZNSt5queueIiSt5dequeIiSaIiEEE5frontEv, symObjAddr: 0x148E, symBinAddr: 0x10000254A, symSize: 0x1A }
  - { offsetInCU: 0x2F5CC, offset: 0x2F5CC, size: 0x8, addend: 0x0, symName: __ZNKSt5queueIiSt5dequeIiSaIiEEE5emptyEv, symObjAddr: 0x1474, symBinAddr: 0x100002530, symSize: 0x1A }
  - { offsetInCU: 0x2F5F6, offset: 0x2F5F6, size: 0x8, addend: 0x0, symName: __ZNSt13unordered_mapIiiSt4hashIiESt8equal_toIiESaISt4pairIKiiEEEixERS5_, symObjAddr: 0x144E, symBinAddr: 0x10000250A, symSize: 0x26 }
  - { offsetInCU: 0x2F631, offset: 0x2F631, size: 0x8, addend: 0x0, symName: __ZNSt13unordered_mapIibSt4hashIiESt8equal_toIiESaISt4pairIKibEEEixERS5_, symObjAddr: 0x1428, symBinAddr: 0x1000024E4, symSize: 0x26 }
  - { offsetInCU: 0x2F66C, offset: 0x2F66C, size: 0x8, addend: 0x0, symName: __ZNSt5queueIiSt5dequeIiSaIiEEE4pushERKi, symObjAddr: 0x1402, symBinAddr: 0x1000024BE, symSize: 0x26 }
  - { offsetInCU: 0x2F6DF, offset: 0x2F6DF, size: 0x8, addend: 0x0, symName: __ZNSt5dequeIiSaIiEED1Ev, symObjAddr: 0x1396, symBinAddr: 0x100002452, symSize: 0x6C }
  - { offsetInCU: 0x2F73F, offset: 0x2F73F, size: 0x8, addend: 0x0, symName: __ZNSt5queueIiSt5dequeIiSaIiEEEC1IS2_vEEv, symObjAddr: 0x1360, symBinAddr: 0x10000241C, symSize: 0x36 }
  - { offsetInCU: 0x2F77C, offset: 0x2F77C, size: 0x8, addend: 0x0, symName: __ZNSt5dequeIiSaIiEEC1Ev, symObjAddr: 0x1344, symBinAddr: 0x100002400, symSize: 0x1C }
  - { offsetInCU: 0x2F880, offset: 0x2F880, size: 0x8, addend: 0x0, symName: __ZNSt10_HashtableIiSt4pairIKiiESaIS2_ENSt8__detail10_Select1stESt8equal_toIiESt4hashIiENS4_18_Mod_range_hashingENS4_20_Default_ranged_hashENS4_20_Prime_rehash_policyENS4_17_Hashtable_traitsILb0ELb0ELb1EEEED1Ev, symObjAddr: 0x1310, symBinAddr: 0x1000023CC, symSize: 0x34 }
  - { offsetInCU: 0x2F868, offset: 0x2F868, size: 0x8, addend: 0x0, symName: __ZNSt8__detail21_Hashtable_ebo_helperILi0ESaINS_10_Hash_nodeISt4pairIKiiELb0EEEELb1EEC2Ev, symObjAddr: 0x12F2, symBinAddr: 0x1000023AE, symSize: 0x1E }
  - { offsetInCU: 0x2F8D7, offset: 0x2F8D7, size: 0x8, addend: 0x0, symName: __ZNSt8__detail21_Hashtable_ebo_helperILi0ESt8equal_toIiELb1EEC2Ev, symObjAddr: 0x12E6, symBinAddr: 0x1000023A2, symSize: 0xC }
  - { offsetInCU: 0x2F913, offset: 0x2F913, size: 0x8, addend: 0x0, symName: __ZNSt8__detail21_Hashtable_ebo_helperILi1ESt4hashIiELb1EEC2Ev, symObjAddr: 0x12DA, symBinAddr: 0x100002396, symSize: 0xC }
  - { offsetInCU: 0x2F8FF, offset: 0x2F8FF, size: 0x8, addend: 0x0, symName: __ZNKSt14_List_iteratorIiEdeEv, symObjAddr: 0x12BC, symBinAddr: 0x100002378, symSize: 0x1E }
  - { offsetInCU: 0x2F929, offset: 0x2F929, size: 0x8, addend: 0x0, symName: __ZNSt14_List_iteratorIiEppEv, symObjAddr: 0x129C, symBinAddr: 0x100002358, symSize: 0x20 }
  - { offsetInCU: 0x2F956, offset: 0x2F956, size: 0x8, addend: 0x0, symName: __ZStneRKSt14_List_iteratorIiES2_, symObjAddr: 0x1279, symBinAddr: 0x100002335, symSize: 0x23 }
  - { offsetInCU: 0x2F995, offset: 0x2F995, size: 0x8, addend: 0x0, symName: __ZNSt7__cxx114listIiSaIiEE3endEv, symObjAddr: 0x1254, symBinAddr: 0x100002310, symSize: 0x25 }
  - { offsetInCU: 0x2F9BF, offset: 0x2F9BF, size: 0x8, addend: 0x0, symName: __ZNSt7__cxx114listIiSaIiEE5beginEv, symObjAddr: 0x122C, symBinAddr: 0x1000022E8, symSize: 0x28 }
  - { offsetInCU: 0x2FA2F, offset: 0x2FA2F, size: 0x8, addend: 0x0, symName: __ZNSt7__cxx1110_List_baseIiSaIiEED2Ev, symObjAddr: 0x1204, symBinAddr: 0x1000022C0, symSize: 0x28 }
  - { offsetInCU: 0x2FA89, offset: 0x2FA89, size: 0x8, addend: 0x0, symName: __ZNSt7__cxx1110_List_baseIiSaIiEE10_List_implD1Ev, symObjAddr: 0x11E0, symBinAddr: 0x10000229C, symSize: 0x24 }
  - { offsetInCU: 0x2FAEC, offset: 0x2FAEC, size: 0x8, addend: 0x0, symName: __ZNSt7__cxx114listIiSaIiEEC1ERKS2_, symObjAddr: 0x1120, symBinAddr: 0x1000021DC, symSize: 0xC0 }
  - { offsetInCU: 0x2FBC1, offset: 0x2FBC1, size: 0x8, addend: 0x0, symName: __ZNKSt8__detail14_Node_iteratorISt4pairIKiNSt7__cxx114listIiSaIiEEEELb0ELb0EEdeEv, symObjAddr: 0x10EC, symBinAddr: 0x1000021A8, symSize: 0x34 }
  - { offsetInCU: 0x2FC33, offset: 0x2FC33, size: 0x8, addend: 0x0, symName: __ZNSt8__detail14_Node_iteratorISt4pairIKiNSt7__cxx114listIiSaIiEEEELb0ELb0EEppEv, symObjAddr: 0x10CE, symBinAddr: 0x10000218A, symSize: 0x1E }
  - { offsetInCU: 0x2FC60, offset: 0x2FC60, size: 0x8, addend: 0x0, symName: __ZNSt8__detailneERKNS_19_Node_iterator_baseISt4pairIKiNSt7__cxx114listIiSaIiEEEELb0EEESA_, symObjAddr: 0x10AC, symBinAddr: 0x100002168, symSize: 0x22 }
  - { offsetInCU: 0x2FC9F, offset: 0x2FC9F, size: 0x8, addend: 0x0, symName: __ZNSt13unordered_mapIiNSt7__cxx114listIiSaIiEEESt4hashIiESt8equal_toIiESaISt4pairIKiS3_EEE3endEv, symObjAddr: 0x1092, symBinAddr: 0x10000214E, symSize: 0x1A }
  - { offsetInCU: 0x2FCC9, offset: 0x2FCC9, size: 0x8, addend: 0x0, symName: __ZNSt13unordered_mapIiNSt7__cxx114listIiSaIiEEESt4hashIiESt8equal_toIiESaISt4pairIKiS3_EEE5beginEv, symObjAddr: 0x1078, symBinAddr: 0x100002134, symSize: 0x1A }
  - { offsetInCU: 0x2FCF3, offset: 0x2FCF3, size: 0x8, addend: 0x0, symName: __ZNSt7__cxx114listIiSaIiEE9push_backERKi, symObjAddr: 0x1042, symBinAddr: 0x1000020FE, symSize: 0x36 }
  - { offsetInCU: 0x2FD2E, offset: 0x2FD2E, size: 0x8, addend: 0x0, symName: __ZNSt13unordered_mapIiNSt7__cxx114listIiSaIiEEESt4hashIiESt8equal_toIiESaISt4pairIKiS3_EEEixERS9_, symObjAddr: 0x101C, symBinAddr: 0x1000020D8, symSize: 0x26 }
  - { offsetInCU: 0x2FD65, offset: 0x2FD65, size: 0x8, addend: 0x0, symName: __ZSt3maxImERKT_S2_S2_, symObjAddr: 0xFF0, symBinAddr: 0x1000020AC, symSize: 0x2C }
  - { offsetInCU: 0x2FDB2, offset: 0x2FDB2, size: 0x8, addend: 0x0, symName: _main, symObjAddr: 0xD13, symBinAddr: 0x100001DCF, symSize: 0x2DD }
  - { offsetInCU: 0x2FEF0, offset: 0x2FEF0, size: 0x8, addend: 0x0, symName: __ZNSt13unordered_mapIibSt4hashIiESt8equal_toIiESaISt4pairIKibEEED1Ev, symObjAddr: 0xCF8, symBinAddr: 0x100001DB4, symSize: 0x1B }
  - { offsetInCU: 0x2FF30, offset: 0x2FF30, size: 0x8, addend: 0x0, symName: __ZNSt13unordered_mapIibSt4hashIiESt8equal_toIiESaISt4pairIKibEEEC1Ev, symObjAddr: 0xCDC, symBinAddr: 0x100001D98, symSize: 0x1C }
  - { offsetInCU: 0x2FFFD, offset: 0x2FFFD, size: 0x8, addend: 0x0, symName: __ZNSt10_HashtableIiSt4pairIKibESaIS2_ENSt8__detail10_Select1stESt8equal_toIiESt4hashIiENS4_18_Mod_range_hashingENS4_20_Default_ranged_hashENS4_20_Prime_rehash_policyENS4_17_Hashtable_traitsILb0ELb0ELb1EEEEC1Ev, symObjAddr: 0xC58, symBinAddr: 0x100001D14, symSize: 0x84 }
  - { offsetInCU: 0x2FFC6, offset: 0x2FFC6, size: 0x8, addend: 0x0, symName: __ZNSt8__detail16_Hashtable_allocISaINS_10_Hash_nodeISt4pairIKibELb0EEEEED2Ev, symObjAddr: 0xC3C, symBinAddr: 0x100001CF8, symSize: 0x1C }
  - { offsetInCU: 0x30006, offset: 0x30006, size: 0x8, addend: 0x0, symName: __ZNSt8__detail16_Hashtable_allocISaINS_10_Hash_nodeISt4pairIKibELb0EEEEEC2Ev, symObjAddr: 0xC20, symBinAddr: 0x100001CDC, symSize: 0x1C }
  - { offsetInCU: 0x30061, offset: 0x30061, size: 0x8, addend: 0x0, symName: __ZNSt8__detail21_Hashtable_ebo_helperILi0ESaINS_10_Hash_nodeISt4pairIKibELb0EEEELb1EED2Ev, symObjAddr: 0xBFC, symBinAddr: 0x100001CB8, symSize: 0x24 }
  - { offsetInCU: 0x3011D, offset: 0x3011D, size: 0x8, addend: 0x0, symName: __ZNSt8__detail15_Hashtable_baseIiSt4pairIKibENS_10_Select1stESt8equal_toIiESt4hashIiENS_18_Mod_range_hashingENS_20_Default_ranged_hashENS_17_Hashtable_traitsILb0ELb0ELb1EEEEC2Ev, symObjAddr: 0xBD4, symBinAddr: 0x100001C90, symSize: 0x28 }
  - { offsetInCU: 0x3012E, offset: 0x3012E, size: 0x8, addend: 0x0, symName: __ZNSt8__detail15_Hash_code_baseIiSt4pairIKibENS_10_Select1stESt4hashIiENS_18_Mod_range_hashingENS_20_Default_ranged_hashELb0EEC2Ev, symObjAddr: 0xBB8, symBinAddr: 0x100001C74, symSize: 0x1C }
  - { offsetInCU: 0x30106, offset: 0x30106, size: 0x8, addend: 0x0, symName: __ZN5GraphD1Ev, symObjAddr: 0xB9C, symBinAddr: 0x100001C58, symSize: 0x1C }
  - { offsetInCU: 0x30149, offset: 0x30149, size: 0x8, addend: 0x0, symName: __ZN5GraphC1Ev, symObjAddr: 0xB80, symBinAddr: 0x100001C3C, symSize: 0x1C }
  - { offsetInCU: 0x301E7, offset: 0x301E7, size: 0x8, addend: 0x0, symName: __ZNSt13unordered_mapIiNSt7__cxx114listIiSaIiEEESt4hashIiESt8equal_toIiESaISt4pairIKiS3_EEED1Ev, symObjAddr: 0xB64, symBinAddr: 0x100001C20, symSize: 0x1C }
  - { offsetInCU: 0x30227, offset: 0x30227, size: 0x8, addend: 0x0, symName: __ZNSt13unordered_mapIiNSt7__cxx114listIiSaIiEEESt4hashIiESt8equal_toIiESaISt4pairIKiS3_EEEC1Ev, symObjAddr: 0xB48, symBinAddr: 0x100001C04, symSize: 0x1C }
  - { offsetInCU: 0x302F2, offset: 0x302F2, size: 0x8, addend: 0x0, symName: __ZNSt10_HashtableIiSt4pairIKiNSt7__cxx114listIiSaIiEEEESaIS6_ENSt8__detail10_Select1stESt8equal_toIiESt4hashIiENS8_18_Mod_range_hashingENS8_20_Default_ranged_hashENS8_20_Prime_rehash_policyENS8_17_Hashtable_traitsILb0ELb0ELb1EEEEC1Ev, symObjAddr: 0xAC4, symBinAddr: 0x100001B80, symSize: 0x84 }
  - { offsetInCU: 0x302BB, offset: 0x302BB, size: 0x8, addend: 0x0, symName: __ZNSt8__detail16_Hashtable_allocISaINS_10_Hash_nodeISt4pairIKiNSt7__cxx114listIiSaIiEEEELb0EEEEED2Ev, symObjAddr: 0xAA8, symBinAddr: 0x100001B64, symSize: 0x1C }
  - { offsetInCU: 0x302FB, offset: 0x302FB, size: 0x8, addend: 0x0, symName: __ZNSt8__detail16_Hashtable_allocISaINS_10_Hash_nodeISt4pairIKiNSt7__cxx114listIiSaIiEEEELb0EEEEEC2Ev, symObjAddr: 0xA8C, symBinAddr: 0x100001B48, symSize: 0x1C }
  - { offsetInCU: 0x30356, offset: 0x30356, size: 0x8, addend: 0x0, symName: __ZNSt8__detail21_Hashtable_ebo_helperILi0ESaINS_10_Hash_nodeISt4pairIKiNSt7__cxx114listIiSaIiEEEELb0EEEELb1EED2Ev, symObjAddr: 0xA68, symBinAddr: 0x100001B24, symSize: 0x24 }
  - { offsetInCU: 0x30412, offset: 0x30412, size: 0x8, addend: 0x0, symName: __ZNSt8__detail15_Hashtable_baseIiSt4pairIKiNSt7__cxx114listIiSaIiEEEENS_10_Select1stESt8equal_toIiESt4hashIiENS_18_Mod_range_hashingENS_20_Default_ranged_hashENS_17_Hashtable_traitsILb0ELb0ELb1EEEEC2Ev, symObjAddr: 0xA40, symBinAddr: 0x100001AFC, symSize: 0x28 }
  - { offsetInCU: 0x30423, offset: 0x30423, size: 0x8, addend: 0x0, symName: __ZNSt8__detail15_Hash_code_baseIiSt4pairIKiNSt7__cxx114listIiSaIiEEEENS_10_Select1stESt4hashIiENS_18_Mod_range_hashingENS_20_Default_ranged_hashELb0EEC2Ev, symObjAddr: 0xA24, symBinAddr: 0x100001AE0, symSize: 0x1C }
  - { offsetInCU: 0x303B2, offset: 0x303B2, size: 0x8, addend: 0x0, symName: __ZN5Graph17cycleDetectionDFSEiRSt13unordered_mapIibSt4hashIiESt8equal_toIiESaISt4pairIKibEEEi, symObjAddr: 0x8B8, symBinAddr: 0x100001974, symSize: 0x16C }
  - { offsetInCU: 0x30491, offset: 0x30491, size: 0x8, addend: 0x0, symName: __ZN5Graph17cycleDetectionBFSEiRSt13unordered_mapIibSt4hashIiESt8equal_toIiESaISt4pairIKibEEE, symObjAddr: 0x578, symBinAddr: 0x100001634, symSize: 0x340 }
  - { offsetInCU: 0x305BC, offset: 0x305BC, size: 0x8, addend: 0x0, symName: __ZNSt5queueIiSt5dequeIiSaIiEEED1Ev, symObjAddr: 0x55C, symBinAddr: 0x100001618, symSize: 0x1C }
  - { offsetInCU: 0x3062B, offset: 0x3062B, size: 0x8, addend: 0x0, symName: __ZNSt13unordered_mapIiiSt4hashIiESt8equal_toIiESaISt4pairIKiiEEED1Ev, symObjAddr: 0x540, symBinAddr: 0x1000015FC, symSize: 0x1C }
  - { offsetInCU: 0x3066B, offset: 0x3066B, size: 0x8, addend: 0x0, symName: __ZNSt13unordered_mapIiiSt4hashIiESt8equal_toIiESaISt4pairIKiiEEEC1Ev, symObjAddr: 0x524, symBinAddr: 0x1000015E0, symSize: 0x1C }
  - { offsetInCU: 0x30738, offset: 0x30738, size: 0x8, addend: 0x0, symName: __ZNSt10_HashtableIiSt4pairIKiiESaIS2_ENSt8__detail10_Select1stESt8equal_toIiESt4hashIiENS4_18_Mod_range_hashingENS4_20_Default_ranged_hashENS4_20_Prime_rehash_policyENS4_17_Hashtable_traitsILb0ELb0ELb1EEEEC1Ev, symObjAddr: 0x4A0, symBinAddr: 0x10000155C, symSize: 0x84 }
  - { offsetInCU: 0x30701, offset: 0x30701, size: 0x8, addend: 0x0, symName: __ZNSt8__detail16_Hashtable_allocISaINS_10_Hash_nodeISt4pairIKiiELb0EEEEED2Ev, symObjAddr: 0x484, symBinAddr: 0x100001540, symSize: 0x1C }
  - { offsetInCU: 0x30741, offset: 0x30741, size: 0x8, addend: 0x0, symName: __ZNSt8__detail16_Hashtable_allocISaINS_10_Hash_nodeISt4pairIKiiELb0EEEEEC2Ev, symObjAddr: 0x468, symBinAddr: 0x100001524, symSize: 0x1C }
  - { offsetInCU: 0x3079C, offset: 0x3079C, size: 0x8, addend: 0x0, symName: __ZNSt8__detail21_Hashtable_ebo_helperILi0ESaINS_10_Hash_nodeISt4pairIKiiELb0EEEELb1EED2Ev, symObjAddr: 0x444, symBinAddr: 0x100001500, symSize: 0x24 }
  - { offsetInCU: 0x30858, offset: 0x30858, size: 0x8, addend: 0x0, symName: __ZNSt8__detail15_Hashtable_baseIiSt4pairIKiiENS_10_Select1stESt8equal_toIiESt4hashIiENS_18_Mod_range_hashingENS_20_Default_ranged_hashENS_17_Hashtable_traitsILb0ELb0ELb1EEEEC2Ev, symObjAddr: 0x41C, symBinAddr: 0x1000014D8, symSize: 0x28 }
  - { offsetInCU: 0x30869, offset: 0x30869, size: 0x8, addend: 0x0, symName: __ZNSt8__detail15_Hash_code_baseIiSt4pairIKiiENS_10_Select1stESt4hashIiENS_18_Mod_range_hashingENS_20_Default_ranged_hashELb0EEC2Ev, symObjAddr: 0x400, symBinAddr: 0x1000014BC, symSize: 0x1C }
  - { offsetInCU: 0x30810, offset: 0x30810, size: 0x8, addend: 0x0, symName: __ZN5Graph10printGraphEv, symObjAddr: 0x286, symBinAddr: 0x100001342, symSize: 0x17A }
  - { offsetInCU: 0x30917, offset: 0x30917, size: 0x8, addend: 0x0, symName: __ZNSt4pairIKiNSt7__cxx114listIiSaIiEEEED1Ev, symObjAddr: 0x266, symBinAddr: 0x100001322, symSize: 0x20 }
  - { offsetInCU: 0x30960, offset: 0x30960, size: 0x8, addend: 0x0, symName: __ZNSt4pairIKiNSt7__cxx114listIiSaIiEEEEC1ERKS5_, symObjAddr: 0x22C, symBinAddr: 0x1000012E8, symSize: 0x3A }
  - { offsetInCU: 0x309A2, offset: 0x309A2, size: 0x8, addend: 0x0, symName: __ZNSt7__cxx114listIiSaIiEED1Ev, symObjAddr: 0x210, symBinAddr: 0x1000012CC, symSize: 0x1C }
  - { offsetInCU: 0x309AD, offset: 0x309AD, size: 0x8, addend: 0x0, symName: __ZN5Graph7addEdgeEiib, symObjAddr: 0x17C, symBinAddr: 0x100001238, symSize: 0x94 }
  - { offsetInCU: 0x30A07, offset: 0x30A07, size: 0x8, addend: 0x0, symName: __ZNSt8__detail17_List_node_header7_M_initEv, symObjAddr: 0x14A, symBinAddr: 0x100001206, symSize: 0x32 }
  - { offsetInCU: 0x30A6D, offset: 0x30A6D, size: 0x8, addend: 0x0, symName: __ZNSt8__detail17_List_node_headerC1Ev, symObjAddr: 0x12E, symBinAddr: 0x1000011EA, symSize: 0x1C }
  - { offsetInCU: 0x30A6D, offset: 0x30A6D, size: 0x8, addend: 0x0, symName: __ZSt16__deque_buf_sizem, symObjAddr: 0x104, symBinAddr: 0x1000011C0, symSize: 0x2A }
  - { offsetInCU: 0x30A96, offset: 0x30A96, size: 0x8, addend: 0x0, symName: __ZSt3minImERKT_S2_S2_, symObjAddr: 0xD9, symBinAddr: 0x100001195, symSize: 0x2B }
  - { offsetInCU: 0x30ADC, offset: 0x30ADC, size: 0x8, addend: 0x0, symName: __ZNSt8__detail20_Prime_rehash_policy8_M_resetEm, symObjAddr: 0xBE, symBinAddr: 0x10000117A, symSize: 0x1B }
  - { offsetInCU: 0x30B17, offset: 0x30B17, size: 0x8, addend: 0x0, symName: __ZNKSt8__detail20_Prime_rehash_policy8_M_stateEv, symObjAddr: 0xAC, symBinAddr: 0x100001168, symSize: 0x12 }
  - { offsetInCU: 0x30B8E, offset: 0x30B8E, size: 0x8, addend: 0x0, symName: __ZNSt8__detail20_Prime_rehash_policyC1Ef, symObjAddr: 0x82, symBinAddr: 0x10000113E, symSize: 0x2A }
  - { offsetInCU: 0x30B98, offset: 0x30B98, size: 0x8, addend: 0x0, symName: __ZNKSt8__detail18_Mod_range_hashingclEmm, symObjAddr: 0x60, symBinAddr: 0x10000111C, symSize: 0x22 }
  - { offsetInCU: 0x30C1E, offset: 0x30C1E, size: 0x8, addend: 0x0, symName: __ZNSt8__detail15_Hash_node_baseC1Ev, symObjAddr: 0x4A, symBinAddr: 0x100001106, symSize: 0x16 }
  - { offsetInCU: 0x30C48, offset: 0x30C48, size: 0x8, addend: 0x0, symName: __ZNSt8__detail15_Hash_node_baseC2Ev, symObjAddr: 0x34, symBinAddr: 0x1000010F0, symSize: 0x16 }
  - { offsetInCU: 0x30C4E, offset: 0x30C4E, size: 0x8, addend: 0x0, symName: __ZNKSt4hashIiEclEi, symObjAddr: 0x22, symBinAddr: 0x1000010DE, symSize: 0x12 }
  - { offsetInCU: 0x30C91, offset: 0x30C91, size: 0x8, addend: 0x0, symName: __ZdlPvS_, symObjAddr: 0x12, symBinAddr: 0x1000010CE, symSize: 0x10 }
  - { offsetInCU: 0x30CC6, offset: 0x30CC6, size: 0x8, addend: 0x0, symName: __ZnwmPv, symObjAddr: 0x0, symBinAddr: 0x1000010BC, symSize: 0x12 }
...
